---
triple:          'arm64-apple-darwin'
binary-path:     '/Users/teatisaj/bio/Mutation-Detection-Using-Third-Generation-Sequencing/logger_main2'
relocations:
  - { offsetInCU: 0x5C, offset: 0x5C, size: 0x8, addend: 0x0, symName: __ZNSt3__1L19piecewise_constructE, symObjAddr: 0x11C8C, symBinAddr: 0x10001348C, symSize: 0x0 }
  - { offsetInCU: 0x54A8, offset: 0x54A8, size: 0x8, addend: 0x0, symName: __ZNSt3__124__put_character_sequenceB8ue170006IcNS_11char_traitsIcEEEERNS_13basic_ostreamIT_T0_EES7_PKS4_m, symObjAddr: 0x506C, symBinAddr: 0x10000638C, symSize: 0x1EC }
  - { offsetInCU: 0x121A7, offset: 0x121A7, size: 0x8, addend: 0x0, symName: __ZNSt3__17advanceB8ue170006INS_21__tree_const_iteratorINS_12__value_typeINS_4pairIiiEE8SamEntryEEPNS_11__tree_nodeIS6_PvEElEEllvEEvRT_T0_, symObjAddr: 0x11324, symBinAddr: 0x100012644, symSize: 0x38 }
  - { offsetInCU: 0x14513, offset: 0x14513, size: 0x8, addend: 0x0, symName: __ZNSt3__1lsB8ue170006IcNS_11char_traitsIcEENS_9allocatorIcEEEERNS_13basic_ostreamIT_T0_EES9_RKNS_12basic_stringIS6_S7_T1_EE, symObjAddr: 0x648, symBinAddr: 0x100001968, symSize: 0x4C }
  - { offsetInCU: 0x1456B, offset: 0x1456B, size: 0x8, addend: 0x0, symName: __ZNSt3__1lsB8ue170006INS_11char_traitsIcEEEERNS_13basic_ostreamIcT_EES6_PKc, symObjAddr: 0x694, symBinAddr: 0x1000019B4, symSize: 0x48 }
  - { offsetInCU: 0x145B1, offset: 0x145B1, size: 0x8, addend: 0x0, symName: __ZNSt3__14endlB8ue170006IcNS_11char_traitsIcEEEERNS_13basic_ostreamIT_T0_EES7_, symObjAddr: 0x708, symBinAddr: 0x100001A28, symSize: 0x58 }
  - { offsetInCU: 0x145F1, offset: 0x145F1, size: 0x8, addend: 0x0, symName: __ZNSt3__17getlineB8ue170006IcNS_11char_traitsIcEENS_9allocatorIcEEEERNS_13basic_istreamIT_T0_EES9_RNS_12basic_stringIS6_S7_T1_EE, symObjAddr: 0x78C, symBinAddr: 0x100001AAC, symSize: 0x5C }
  - { offsetInCU: 0x14649, offset: 0x14649, size: 0x8, addend: 0x0, symName: __ZNSt3__1rsB8ue170006IcNS_11char_traitsIcEENS_9allocatorIcEEEERNS_13basic_istreamIT_T0_EES9_RNS_12basic_stringIS6_S7_T1_EE, symObjAddr: 0x940, symBinAddr: 0x100001C60, symSize: 0x308 }
  - { offsetInCU: 0x14716, offset: 0x14716, size: 0x8, addend: 0x0, symName: __ZNSt3__1rsB8ue170006IcNS_11char_traitsIcEEEERNS_13basic_istreamIT_T0_EES7_RS4_, symObjAddr: 0xF40, symBinAddr: 0x100002260, symSize: 0x18C }
  - { offsetInCU: 0x14798, offset: 0x14798, size: 0x8, addend: 0x0, symName: __ZNSt3__19make_pairB8ue170006IRcRiEENS_4pairINS_18__unwrap_ref_decayIT_E4typeENS4_IT0_E4typeEEEOS5_OS8_, symObjAddr: 0x1138, symBinAddr: 0x100002458, symSize: 0x34 }
  - { offsetInCU: 0x147E7, offset: 0x147E7, size: 0x8, addend: 0x0, symName: __ZNSt3__1lsB8ue170006INS_11char_traitsIcEEEERNS_13basic_ostreamIcT_EES6_c, symObjAddr: 0x1404, symBinAddr: 0x100002724, symSize: 0x34 }
  - { offsetInCU: 0x1482D, offset: 0x1482D, size: 0x8, addend: 0x0, symName: __ZNSt3__1neB8ue170006ERKNS_20__map_const_iteratorINS_21__tree_const_iteratorINS_12__value_typeINS_4pairIiiEE8SamEntryEEPNS_11__tree_nodeIS6_PvEElEEEESE_, symObjAddr: 0x1758, symBinAddr: 0x100002A78, symSize: 0x30 }
  - { offsetInCU: 0x1486A, offset: 0x1486A, size: 0x8, addend: 0x0, symName: __ZNSt3__1neB8ue170006ERKNS_14__map_iteratorINS_15__tree_iteratorINS_12__value_typeINS_4pairIiiEE8SamEntryEEPNS_11__tree_nodeIS6_PvEElEEEESE_, symObjAddr: 0x1CD8, symBinAddr: 0x100002FF8, symSize: 0x30 }
  - { offsetInCU: 0x148A7, offset: 0x148A7, size: 0x8, addend: 0x0, symName: __ZNSt3__1neB8ue170006IPNS_4pairIciEEEEbRKNS_11__wrap_iterIT_EES8_, symObjAddr: 0x1D90, symBinAddr: 0x1000030B0, symSize: 0x34 }
  - { offsetInCU: 0x148EA, offset: 0x148EA, size: 0x8, addend: 0x0, symName: __ZNSt3__17reverseB8ue170006INS_11__wrap_iterIPcEEEEvT_S4_, symObjAddr: 0x2D0C, symBinAddr: 0x10000402C, symSize: 0x3C }
  - { offsetInCU: 0x14929, offset: 0x14929, size: 0x8, addend: 0x0, symName: __ZNSt3__1neB8ue170006IPKcEEbRKNS_11__wrap_iterIT_EES7_, symObjAddr: 0x2E9C, symBinAddr: 0x1000041BC, symSize: 0x34 }
  - { offsetInCU: 0x1496C, offset: 0x1496C, size: 0x8, addend: 0x0, symName: '__ZNSt3__111max_elementB8ue170006INS_14__map_iteratorINS_15__tree_iteratorINS_12__value_typeIciEEPNS_11__tree_nodeIS4_PvEElEEEEZ15detectMutationsRNS_3mapINS_4pairIiiEE8SamEntry16ComparePositionsNS_9allocatorINSC_IKSD_SE_EEEEEERKNS_12basic_stringIcNS_11char_traitsIcEENSG_IcEEEESS_SS_E3$_0EET_SU_SU_T0_', symObjAddr: 0x2F88, symBinAddr: 0x1000042A8, symSize: 0x48 }
  - { offsetInCU: 0x149C6, offset: 0x149C6, size: 0x8, addend: 0x0, symName: '__ZNSt3__111max_elementB8ue170006INS_14__map_iteratorINS_15__tree_iteratorINS_12__value_typeIciEEPNS_11__tree_nodeIS4_PvEElEEEEZ15detectMutationsRNS_3mapINS_4pairIiiEE8SamEntry16ComparePositionsNS_9allocatorINSC_IKSD_SE_EEEEEERKNS_12basic_stringIcNS_11char_traitsIcEENSG_IcEEEESS_SS_E3$_1EET_SU_SU_T0_', symObjAddr: 0x30C4, symBinAddr: 0x1000043E4, symSize: 0x48 }
  - { offsetInCU: 0x14A20, offset: 0x14A20, size: 0x8, addend: 0x0, symName: __ZNSt3__1eqB8ue170006IcNS_11char_traitsIcEENS_9allocatorIcEEEEbRKNS_12basic_stringIT_T0_T1_EEPKS6_, symObjAddr: 0x310C, symBinAddr: 0x10000442C, symSize: 0xAC }
  - { offsetInCU: 0x14A87, offset: 0x14A87, size: 0x8, addend: 0x0, symName: __ZNSt3__1neB8ue170006IP8SamEntryEEbRKNS_11__wrap_iterIT_EES7_, symObjAddr: 0x3804, symBinAddr: 0x100004B24, symSize: 0x34 }
  - { offsetInCU: 0x14ACA, offset: 0x14ACA, size: 0x8, addend: 0x0, symName: __ZNSt3__1eqB8ue170006IPNS_4pairIciEEEEbRKNS_11__wrap_iterIT_EES8_, symObjAddr: 0x3D08, symBinAddr: 0x100005028, symSize: 0x48 }
  - { offsetInCU: 0x14B0D, offset: 0x14B0D, size: 0x8, addend: 0x0, symName: __ZNSt3__1eqB8ue170006IPKcEEbRKNS_11__wrap_iterIT_EES7_, symObjAddr: 0x3D68, symBinAddr: 0x100005088, symSize: 0x48 }
  - { offsetInCU: 0x14B50, offset: 0x14B50, size: 0x8, addend: 0x0, symName: '__ZNSt3__113__max_elementB8ue170006IRZ15detectMutationsRNS_3mapINS_4pairIiiEE8SamEntry16ComparePositionsNS_9allocatorINS2_IKS3_S4_EEEEEERKNS_12basic_stringIcNS_11char_traitsIcEENS6_IcEEEESI_SI_E3$_0NS_14__map_iteratorINS_15__tree_iteratorINS_12__value_typeIciEEPNS_11__tree_nodeISO_PvEElEEEEEET0_SV_SV_T_', symObjAddr: 0x3DC8, symBinAddr: 0x1000050E8, symSize: 0xD4 }
  - { offsetInCU: 0x14BC6, offset: 0x14BC6, size: 0x8, addend: 0x0, symName: __ZNSt3__1neB8ue170006ERKNS_14__map_iteratorINS_15__tree_iteratorINS_12__value_typeIciEEPNS_11__tree_nodeIS3_PvEElEEEESB_, symObjAddr: 0x3E9C, symBinAddr: 0x1000051BC, symSize: 0x30 }
  - { offsetInCU: 0x14C03, offset: 0x14C03, size: 0x8, addend: 0x0, symName: __ZNSt3__1neB8ue170006ERKNS_15__tree_iteratorINS_12__value_typeIciEEPNS_11__tree_nodeIS2_PvEElEES9_, symObjAddr: 0x3F88, symBinAddr: 0x1000052A8, symSize: 0x34 }
  - { offsetInCU: 0x14C40, offset: 0x14C40, size: 0x8, addend: 0x0, symName: __ZNSt3__1eqB8ue170006ERKNS_15__tree_iteratorINS_12__value_typeIciEEPNS_11__tree_nodeIS2_PvEElEES9_, symObjAddr: 0x3FBC, symBinAddr: 0x1000052DC, symSize: 0x30 }
  - { offsetInCU: 0x14C7D, offset: 0x14C7D, size: 0x8, addend: 0x0, symName: __ZNSt3__116__tree_next_iterB8ue170006IPNS_15__tree_end_nodeIPNS_16__tree_node_baseIPvEEEES5_EET_T0_, symObjAddr: 0x4024, symBinAddr: 0x100005344, symSize: 0x90 }
  - { offsetInCU: 0x14CBB, offset: 0x14CBB, size: 0x8, addend: 0x0, symName: __ZNSt3__110__tree_minB8ue170006IPNS_16__tree_node_baseIPvEEEET_S5_, symObjAddr: 0x40B4, symBinAddr: 0x1000053D4, symSize: 0x40 }
  - { offsetInCU: 0x14CF0, offset: 0x14CF0, size: 0x8, addend: 0x0, symName: __ZNSt3__120__tree_is_left_childB8ue170006IPNS_16__tree_node_baseIPvEEEEbT_, symObjAddr: 0x40F4, symBinAddr: 0x100005414, symSize: 0x2C }
  - { offsetInCU: 0x14D58, offset: 0x14D58, size: 0x8, addend: 0x0, symName: '__ZNSt3__113__max_elementB8ue170006IRZ15detectMutationsRNS_3mapINS_4pairIiiEE8SamEntry16ComparePositionsNS_9allocatorINS2_IKS3_S4_EEEEEERKNS_12basic_stringIcNS_11char_traitsIcEENS6_IcEEEESI_SI_E3$_1NS_14__map_iteratorINS_15__tree_iteratorINS_12__value_typeIciEEPNS_11__tree_nodeISO_PvEElEEEEEET0_SV_SV_T_', symObjAddr: 0x41E0, symBinAddr: 0x100005500, symSize: 0xD4 }
  - { offsetInCU: 0x14DCE, offset: 0x14DCE, size: 0x8, addend: 0x0, symName: __ZNSt3__1eqB8ue170006IP8SamEntryEEbRKNS_11__wrap_iterIT_EES7_, symObjAddr: 0x4374, symBinAddr: 0x100005694, symSize: 0x48 }
  - { offsetInCU: 0x14E11, offset: 0x14E11, size: 0x8, addend: 0x0, symName: __ZNSt3__112__to_addressB8ue170006IKcEEPT_S3_, symObjAddr: 0x4634, symBinAddr: 0x100005954, symSize: 0x14 }
  - { offsetInCU: 0x14E79, offset: 0x14E79, size: 0x8, addend: 0x0, symName: __ZNSt3__112__to_addressB8ue170006I8SamEntryEEPT_S3_, symObjAddr: 0x4C38, symBinAddr: 0x100005F58, symSize: 0x14 }
  - { offsetInCU: 0x14EAE, offset: 0x14EAE, size: 0x8, addend: 0x0, symName: __ZNSt3__119__libcpp_deallocateB8ue170006EPvmm, symObjAddr: 0x4D28, symBinAddr: 0x100006048, symSize: 0x30 }
  - { offsetInCU: 0x14EF6, offset: 0x14EF6, size: 0x8, addend: 0x0, symName: __ZNSt3__127__do_deallocate_handle_sizeB8ue170006IJEEEvPvmDpT_, symObjAddr: 0x4D58, symBinAddr: 0x100006078, symSize: 0x28 }
  - { offsetInCU: 0x14F34, offset: 0x14F34, size: 0x8, addend: 0x0, symName: __ZNSt3__124__libcpp_operator_deleteB8ue170006IJPvEEEvDpT_, symObjAddr: 0x4D80, symBinAddr: 0x1000060A0, symSize: 0x24 }
  - { offsetInCU: 0x14F69, offset: 0x14F69, size: 0x8, addend: 0x0, symName: __ZNSt3__116__pad_and_outputB8ue170006IcNS_11char_traitsIcEEEENS_19ostreambuf_iteratorIT_T0_EES6_PKS4_S8_S8_RNS_8ios_baseES4_, symObjAddr: 0x52A8, symBinAddr: 0x1000065C8, symSize: 0x240 }
  - { offsetInCU: 0x15038, offset: 0x15038, size: 0x8, addend: 0x0, symName: __ZNSt3__19use_facetB8ue170006INS_5ctypeIcEEEERKT_RKNS_6localeE, symObjAddr: 0x5800, symBinAddr: 0x100006B20, symSize: 0x2C }
  - { offsetInCU: 0x15416, offset: 0x15416, size: 0x8, addend: 0x0, symName: __ZNSt3__118__constexpr_strlenB8ue170006EPKc, symObjAddr: 0x5864, symBinAddr: 0x100006B84, symSize: 0x24 }
  - { offsetInCU: 0x15442, offset: 0x15442, size: 0x8, addend: 0x0, symName: __ZNSt3__17getlineB8ue170006IcNS_11char_traitsIcEENS_9allocatorIcEEEERNS_13basic_istreamIT_T0_EES9_RNS_12basic_stringIS6_S7_T1_EES6_, symObjAddr: 0x5888, symBinAddr: 0x100006BA8, symSize: 0x238 }
  - { offsetInCU: 0x15936, offset: 0x15936, size: 0x8, addend: 0x0, symName: __ZNSt3__13maxB8ue170006ImEERKT_S3_S3_, symObjAddr: 0x6964, symBinAddr: 0x100007C84, symSize: 0x2C }
  - { offsetInCU: 0x15979, offset: 0x15979, size: 0x8, addend: 0x0, symName: __ZNSt3__13minB8ue170006ImEERKT_S3_S3_, symObjAddr: 0x6990, symBinAddr: 0x100007CB0, symSize: 0x2C }
  - { offsetInCU: 0x159BC, offset: 0x159BC, size: 0x8, addend: 0x0, symName: __ZNSt3__13minB8ue170006ImNS_6__lessIvvEEEERKT_S5_S5_T0_, symObjAddr: 0x6A08, symBinAddr: 0x100007D28, symSize: 0x54 }
  - { offsetInCU: 0x15A5B, offset: 0x15A5B, size: 0x8, addend: 0x0, symName: __ZNSt3__120__throw_length_errorB8ue170006EPKc, symObjAddr: 0x6AE8, symBinAddr: 0x100007E08, symSize: 0x64 }
  - { offsetInCU: 0x15A85, offset: 0x15A85, size: 0x8, addend: 0x0, symName: __ZNSt3__13maxB8ue170006ImNS_6__lessIvvEEEERKT_S5_S5_T0_, symObjAddr: 0x6BCC, symBinAddr: 0x100007EEC, symSize: 0x54 }
  - { offsetInCU: 0x15ADF, offset: 0x15ADF, size: 0x8, addend: 0x0, symName: __ZNSt3__119__allocate_at_leastB8ue170006INS_9allocatorI8SamEntryEEEENS_19__allocation_resultINS_16allocator_traitsIT_E7pointerEEERS6_m, symObjAddr: 0x6D3C, symBinAddr: 0x10000805C, symSize: 0x40 }
  - { offsetInCU: 0x15B22, offset: 0x15B22, size: 0x8, addend: 0x0, symName: __ZNSt3__117__libcpp_allocateB8ue170006Emm, symObjAddr: 0x6EC4, symBinAddr: 0x1000081E4, symSize: 0x28 }
  - { offsetInCU: 0x15B5F, offset: 0x15B5F, size: 0x8, addend: 0x0, symName: __ZNSt3__121__libcpp_operator_newB8ue170006IJmEEEPvDpT_, symObjAddr: 0x6EEC, symBinAddr: 0x10000820C, symSize: 0x24 }
  - { offsetInCU: 0x15B98, offset: 0x15B98, size: 0x8, addend: 0x0, symName: __ZNSt3__142__uninitialized_allocator_move_if_noexceptB8ue170006INS_9allocatorI8SamEntryEENS_16reverse_iteratorIPS2_EES6_S6_EET2_RT_T0_T1_S7_, symObjAddr: 0x6F74, symBinAddr: 0x100008294, symSize: 0x12C }
  - { offsetInCU: 0x15C38, offset: 0x15C38, size: 0x8, addend: 0x0, symName: __ZNSt3__14swapB8ue170006IP8SamEntryEENS_9enable_ifIXaasr21is_move_constructibleIT_EE5valuesr18is_move_assignableIS4_EE5valueEvE4typeERS4_S7_, symObjAddr: 0x70EC, symBinAddr: 0x10000840C, symSize: 0x3C }
  - { offsetInCU: 0x15C89, offset: 0x15C89, size: 0x8, addend: 0x0, symName: __ZNSt3__122__make_exception_guardB8ue170006INS_29_AllocatorDestroyRangeReverseINS_9allocatorI8SamEntryEENS_16reverse_iteratorIPS3_EEEEEENS_28__exception_guard_exceptionsIT_EESA_, symObjAddr: 0x71F0, symBinAddr: 0x100008510, symSize: 0x4C }
  - { offsetInCU: 0x15CBF, offset: 0x15CBF, size: 0x8, addend: 0x0, symName: __ZNSt3__1neB8ue170006IP8SamEntryS2_EEbRKNS_16reverse_iteratorIT_EERKNS3_IT0_EE, symObjAddr: 0x7280, symBinAddr: 0x1000085A0, symSize: 0x48 }
  - { offsetInCU: 0x15D0B, offset: 0x15D0B, size: 0x8, addend: 0x0, symName: __ZNSt3__112__to_addressB8ue170006INS_16reverse_iteratorIP8SamEntryEEvEEu7__decayIDTclsr19__to_address_helperIT_EE6__callclsr3stdE7declvalIRKS5_EEEEES7_, symObjAddr: 0x72FC, symBinAddr: 0x10000861C, symSize: 0x24 }
  - { offsetInCU: 0x15D6A, offset: 0x15D6A, size: 0x8, addend: 0x0, symName: __ZNSt3__119__allocator_destroyB8ue170006INS_9allocatorI8SamEntryEENS_16reverse_iteratorINS4_IPS2_EEEES7_EEvRT_T0_T1_, symObjAddr: 0x76E8, symBinAddr: 0x100008A08, symSize: 0x70 }
  - { offsetInCU: 0x15DCF, offset: 0x15DCF, size: 0x8, addend: 0x0, symName: __ZNSt3__1neB8ue170006INS_16reverse_iteratorIP8SamEntryEES4_EEbRKNS1_IT_EERKNS1_IT0_EE, symObjAddr: 0x7794, symBinAddr: 0x100008AB4, symSize: 0x60 }
  - { offsetInCU: 0x15E1B, offset: 0x15E1B, size: 0x8, addend: 0x0, symName: __ZNSt3__112__to_addressB8ue170006INS_16reverse_iteratorINS1_IP8SamEntryEEEEvEEu7__decayIDTclsr19__to_address_helperIT_EE6__callclsr3stdE7declvalIRKS6_EEEEES8_, symObjAddr: 0x77F4, symBinAddr: 0x100008B14, symSize: 0x24 }
  - { offsetInCU: 0x15E7A, offset: 0x15E7A, size: 0x8, addend: 0x0, symName: __ZNSt3__112__to_addressB8ue170006INS_4pairIciEEEEPT_S4_, symObjAddr: 0x8008, symBinAddr: 0x100009328, symSize: 0x14 }
  - { offsetInCU: 0x15EAF, offset: 0x15EAF, size: 0x8, addend: 0x0, symName: __ZNSt3__119__allocate_at_leastB8ue170006INS_9allocatorINS_4pairIciEEEEEENS_19__allocation_resultINS_16allocator_traitsIT_E7pointerEEERS7_m, symObjAddr: 0x88C0, symBinAddr: 0x100009BE0, symSize: 0x40 }
  - { offsetInCU: 0x15EF2, offset: 0x15EF2, size: 0x8, addend: 0x0, symName: __ZNSt3__142__uninitialized_allocator_move_if_noexceptB8ue170006INS_9allocatorINS_4pairIciEEEENS_16reverse_iteratorIPS3_EES7_S7_EET2_RT_T0_T1_S8_, symObjAddr: 0x8A74, symBinAddr: 0x100009D94, symSize: 0x12C }
  - { offsetInCU: 0x15F92, offset: 0x15F92, size: 0x8, addend: 0x0, symName: __ZNSt3__14swapB8ue170006IPNS_4pairIciEEEENS_9enable_ifIXaasr21is_move_constructibleIT_EE5valuesr18is_move_assignableIS5_EE5valueEvE4typeERS5_S8_, symObjAddr: 0x8BEC, symBinAddr: 0x100009F0C, symSize: 0x3C }
  - { offsetInCU: 0x15FE3, offset: 0x15FE3, size: 0x8, addend: 0x0, symName: __ZNSt3__122__make_exception_guardB8ue170006INS_29_AllocatorDestroyRangeReverseINS_9allocatorINS_4pairIciEEEENS_16reverse_iteratorIPS4_EEEEEENS_28__exception_guard_exceptionsIT_EESB_, symObjAddr: 0x8CD4, symBinAddr: 0x100009FF4, symSize: 0x4C }
  - { offsetInCU: 0x16019, offset: 0x16019, size: 0x8, addend: 0x0, symName: __ZNSt3__1neB8ue170006IPNS_4pairIciEES3_EEbRKNS_16reverse_iteratorIT_EERKNS4_IT0_EE, symObjAddr: 0x8D64, symBinAddr: 0x10000A084, symSize: 0x48 }
  - { offsetInCU: 0x16065, offset: 0x16065, size: 0x8, addend: 0x0, symName: __ZNSt3__112__to_addressB8ue170006INS_16reverse_iteratorIPNS_4pairIciEEEEvEEu7__decayIDTclsr19__to_address_helperIT_EE6__callclsr3stdE7declvalIRKS6_EEEEES8_, symObjAddr: 0x8DAC, symBinAddr: 0x10000A0CC, symSize: 0x24 }
  - { offsetInCU: 0x160C4, offset: 0x160C4, size: 0x8, addend: 0x0, symName: __ZNSt3__119__allocator_destroyB8ue170006INS_9allocatorINS_4pairIciEEEENS_16reverse_iteratorINS5_IPS3_EEEES8_EEvRT_T0_T1_, symObjAddr: 0x905C, symBinAddr: 0x10000A37C, symSize: 0x70 }
  - { offsetInCU: 0x16129, offset: 0x16129, size: 0x8, addend: 0x0, symName: __ZNSt3__1neB8ue170006INS_16reverse_iteratorIPNS_4pairIciEEEES5_EEbRKNS1_IT_EERKNS1_IT0_EE, symObjAddr: 0x9108, symBinAddr: 0x10000A428, symSize: 0x60 }
  - { offsetInCU: 0x16175, offset: 0x16175, size: 0x8, addend: 0x0, symName: __ZNSt3__112__to_addressB8ue170006INS_16reverse_iteratorINS1_IPNS_4pairIciEEEEEEvEEu7__decayIDTclsr19__to_address_helperIT_EE6__callclsr3stdE7declvalIRKS7_EEEEES9_, symObjAddr: 0x9168, symBinAddr: 0x10000A488, symSize: 0x24 }
  - { offsetInCU: 0x1620B, offset: 0x1620B, size: 0x8, addend: 0x0, symName: __ZNSt3__116forward_as_tupleB8ue170006IJRKiEEENS_5tupleIJDpOT_EEES6_, symObjAddr: 0x95D0, symBinAddr: 0x10000A8F0, symSize: 0x2C }
  - { offsetInCU: 0x16244, offset: 0x16244, size: 0x8, addend: 0x0, symName: __ZNSt3__116forward_as_tupleB8ue170006IJEEENS_5tupleIJDpOT_EEES4_, symObjAddr: 0x95FC, symBinAddr: 0x10000A91C, symSize: 0x4 }
  - { offsetInCU: 0x162C4, offset: 0x162C4, size: 0x8, addend: 0x0, symName: __ZNSt3__13getB8ue170006ILm0EJRKiEEERNS_13tuple_elementIXT_ENS_5tupleIJDpT0_EEEE4typeERS7_, symObjAddr: 0xA1F4, symBinAddr: 0x10000B514, symSize: 0x24 }
  - { offsetInCU: 0x16307, offset: 0x16307, size: 0x8, addend: 0x0, symName: __ZNSt3__127__tree_balance_after_insertB8ue170006IPNS_16__tree_node_baseIPvEEEEvT_S5_, symObjAddr: 0xA440, symBinAddr: 0x10000B760, symSize: 0x27C }
  - { offsetInCU: 0x16383, offset: 0x16383, size: 0x8, addend: 0x0, symName: __ZNSt3__118__tree_left_rotateB8ue170006IPNS_16__tree_node_baseIPvEEEEvT_, symObjAddr: 0xA6E4, symBinAddr: 0x10000BA04, symSize: 0xD8 }
  - { offsetInCU: 0x163C5, offset: 0x163C5, size: 0x8, addend: 0x0, symName: __ZNSt3__119__tree_right_rotateB8ue170006IPNS_16__tree_node_baseIPvEEEEvT_, symObjAddr: 0xA7BC, symBinAddr: 0x10000BADC, symSize: 0xCC }
  - { offsetInCU: 0x16407, offset: 0x16407, size: 0x8, addend: 0x0, symName: __ZNSt3__112__to_addressB8ue170006IcEEPT_S2_, symObjAddr: 0xAEF8, symBinAddr: 0x10000C218, symSize: 0x14 }
  - { offsetInCU: 0x16493, offset: 0x16493, size: 0x8, addend: 0x0, symName: __ZNSt3__119__allocate_at_leastB8ue170006INS_9allocatorIcEEEENS_19__allocation_resultINS_16allocator_traitsIT_E7pointerEEERS5_m, symObjAddr: 0xB914, symBinAddr: 0x10000CC34, symSize: 0x40 }
  - { offsetInCU: 0x164D6, offset: 0x164D6, size: 0x8, addend: 0x0, symName: __ZNSt3__142__uninitialized_allocator_move_if_noexceptB8ue170006INS_9allocatorIcEENS_16reverse_iteratorIPcEES5_cvEET1_RT_T0_S9_S6_, symObjAddr: 0xBAC8, symBinAddr: 0x10000CDE8, symSize: 0x78 }
  - { offsetInCU: 0x16553, offset: 0x16553, size: 0x8, addend: 0x0, symName: __ZNSt3__14swapB8ue170006IPcEENS_9enable_ifIXaasr21is_move_constructibleIT_EE5valuesr18is_move_assignableIS3_EE5valueEvE4typeERS3_S6_, symObjAddr: 0xBB8C, symBinAddr: 0x10000CEAC, symSize: 0x3C }
  - { offsetInCU: 0x165A4, offset: 0x165A4, size: 0x8, addend: 0x0, symName: __ZNSt3__14moveB8ue170006INS_16reverse_iteratorIPcEES3_EET0_T_S5_S4_, symObjAddr: 0xBC74, symBinAddr: 0x10000CF94, symSize: 0x78 }
  - { offsetInCU: 0x165FE, offset: 0x165FE, size: 0x8, addend: 0x0, symName: __ZNSt3__16__moveB8ue170006INS_17_ClassicAlgPolicyENS_16reverse_iteratorIPcEES4_S4_EENS_4pairIT0_T2_EES6_T1_S7_, symObjAddr: 0xBCEC, symBinAddr: 0x10000D00C, symSize: 0x64 }
  - { offsetInCU: 0x1666A, offset: 0x1666A, size: 0x8, addend: 0x0, symName: __ZNSt3__123__dispatch_copy_or_moveB8ue170006INS_17_ClassicAlgPolicyENS_11__move_loopIS1_EENS_14__move_trivialENS_16reverse_iteratorIPcEES7_S7_EENS_4pairIT2_T4_EES9_T3_SA_, symObjAddr: 0xBD50, symBinAddr: 0x10000D070, symSize: 0x64 }
  - { offsetInCU: 0x166E8, offset: 0x166E8, size: 0x8, addend: 0x0, symName: __ZNSt3__121__unwrap_and_dispatchB8ue170006INS_10__overloadINS_11__move_loopINS_17_ClassicAlgPolicyEEENS_14__move_trivialEEENS_16reverse_iteratorIPcEES9_S9_Li0EEENS_4pairIT0_T2_EESB_T1_SC_, symObjAddr: 0xBDB4, symBinAddr: 0x10000D0D4, symSize: 0x12C }
  - { offsetInCU: 0x16778, offset: 0x16778, size: 0x8, addend: 0x0, symName: __ZNSt3__114__unwrap_rangeB8ue170006INS_16reverse_iteratorIPcEES3_EENS_4pairIT0_S5_EET_S7_, symObjAddr: 0xBEE0, symBinAddr: 0x10000D200, symSize: 0x84 }
  - { offsetInCU: 0x168F3, offset: 0x168F3, size: 0x8, addend: 0x0, symName: __ZNSt3__113__unwrap_iterB8ue170006INS_16reverse_iteratorIPcEENS_18__unwrap_iter_implIS3_Lb0EEELi0EEEDTclsrT0_8__unwrapclsr3stdE7declvalIT_EEEES7_, symObjAddr: 0xC004, symBinAddr: 0x10000D324, symSize: 0x44 }
  - { offsetInCU: 0x16937, offset: 0x16937, size: 0x8, addend: 0x0, symName: __ZNSt3__19make_pairB8ue170006INS_16reverse_iteratorIPcEES3_EENS_4pairINS_18__unwrap_ref_decayIT_E4typeENS5_IT0_E4typeEEEOS6_OS9_, symObjAddr: 0xC048, symBinAddr: 0x10000D368, symSize: 0x38 }
  - { offsetInCU: 0x16986, offset: 0x16986, size: 0x8, addend: 0x0, symName: __ZNSt3__114__rewrap_rangeB8ue170006INS_16reverse_iteratorIPcEES3_EET_S4_T0_, symObjAddr: 0xC080, symBinAddr: 0x10000D3A0, symSize: 0x5C }
  - { offsetInCU: 0x169D2, offset: 0x169D2, size: 0x8, addend: 0x0, symName: __ZNSt3__113__rewrap_iterB8ue170006INS_16reverse_iteratorIPcEES3_NS_18__unwrap_iter_implIS3_Lb0EEEEET_S6_T0_, symObjAddr: 0xC0DC, symBinAddr: 0x10000D3FC, symSize: 0x74 }
  - { offsetInCU: 0x16A27, offset: 0x16A27, size: 0x8, addend: 0x0, symName: __ZNSt3__1neB8ue170006IPcS1_EEbRKNS_16reverse_iteratorIT_EERKNS2_IT0_EE, symObjAddr: 0xC150, symBinAddr: 0x10000D470, symSize: 0x48 }
  - { offsetInCU: 0x16B4D, offset: 0x16B4D, size: 0x8, addend: 0x0, symName: __ZNSt3__1neB8ue170006ERKNS_21__tree_const_iteratorINS_12__value_typeINS_4pairIiiEE8SamEntryEEPNS_11__tree_nodeIS5_PvEElEESC_, symObjAddr: 0xCCD0, symBinAddr: 0x10000DFF0, symSize: 0x34 }
  - { offsetInCU: 0x16B8A, offset: 0x16B8A, size: 0x8, addend: 0x0, symName: __ZNSt3__1eqB8ue170006ERKNS_21__tree_const_iteratorINS_12__value_typeINS_4pairIiiEE8SamEntryEEPNS_11__tree_nodeIS5_PvEElEESC_, symObjAddr: 0xCD04, symBinAddr: 0x10000E024, symSize: 0x30 }
  - { offsetInCU: 0x16C3C, offset: 0x16C3C, size: 0x8, addend: 0x0, symName: __ZNSt3__1neB8ue170006ERKNS_15__tree_iteratorINS_12__value_typeINS_4pairIiiEE8SamEntryEEPNS_11__tree_nodeIS5_PvEElEESC_, symObjAddr: 0xDD20, symBinAddr: 0x10000F040, symSize: 0x34 }
  - { offsetInCU: 0x16C79, offset: 0x16C79, size: 0x8, addend: 0x0, symName: __ZNSt3__1eqB8ue170006ERKNS_15__tree_iteratorINS_12__value_typeINS_4pairIiiEE8SamEntryEEPNS_11__tree_nodeIS5_PvEElEESC_, symObjAddr: 0xDD54, symBinAddr: 0x10000F074, symSize: 0x30 }
  - { offsetInCU: 0x16CE9, offset: 0x16CE9, size: 0x8, addend: 0x0, symName: __ZNSt3__19__reverseB8ue170006INS_17_ClassicAlgPolicyENS_11__wrap_iterIPcEES4_EEvT0_T1_, symObjAddr: 0xE404, symBinAddr: 0x10000F724, symSize: 0x3C }
  - { offsetInCU: 0x16D3A, offset: 0x16D3A, size: 0x8, addend: 0x0, symName: __ZNSt3__114__reverse_implB8ue170006INS_17_ClassicAlgPolicyENS_11__wrap_iterIPcEEEEvT0_S5_NS_26random_access_iterator_tagE, symObjAddr: 0xE440, symBinAddr: 0x10000F760, symSize: 0x7C }
  - { offsetInCU: 0x16D8C, offset: 0x16D8C, size: 0x8, addend: 0x0, symName: __ZNSt3__1neB8ue170006IPcEEbRKNS_11__wrap_iterIT_EES6_, symObjAddr: 0xE4BC, symBinAddr: 0x10000F7DC, symSize: 0x34 }
  - { offsetInCU: 0x16DCF, offset: 0x16DCF, size: 0x8, addend: 0x0, symName: __ZNSt3__1ltB8ue170006IPcEEbRKNS_11__wrap_iterIT_EES6_, symObjAddr: 0xE4F0, symBinAddr: 0x10000F810, symSize: 0x48 }
  - { offsetInCU: 0x16E12, offset: 0x16E12, size: 0x8, addend: 0x0, symName: __ZNSt3__1eqB8ue170006IPcEEbRKNS_11__wrap_iterIT_EES6_, symObjAddr: 0xE5BC, symBinAddr: 0x10000F8DC, symSize: 0x48 }
  - { offsetInCU: 0x16E55, offset: 0x16E55, size: 0x8, addend: 0x0, symName: __ZNSt3__19iter_swapB8ue170006INS_11__wrap_iterIPcEES3_EEvT_T0_, symObjAddr: 0xE61C, symBinAddr: 0x10000F93C, symSize: 0x50 }
  - { offsetInCU: 0x16E9D, offset: 0x16E9D, size: 0x8, addend: 0x0, symName: __ZNSt3__14swapB8ue170006IcEENS_9enable_ifIXaasr21is_move_constructibleIT_EE5valuesr18is_move_assignableIS2_EE5valueEvE4typeERS2_S5_, symObjAddr: 0xE66C, symBinAddr: 0x10000F98C, symSize: 0x3C }
  - { offsetInCU: 0x16EEE, offset: 0x16EEE, size: 0x8, addend: 0x0, symName: __ZNSt3__116forward_as_tupleB8ue170006IJRKcEEENS_5tupleIJDpOT_EEES6_, symObjAddr: 0xEE00, symBinAddr: 0x100010120, symSize: 0x2C }
  - { offsetInCU: 0x16F45, offset: 0x16F45, size: 0x8, addend: 0x0, symName: __ZNSt3__13getB8ue170006ILm0EJRKcEEERNS_13tuple_elementIXT_ENS_5tupleIJDpT0_EEEE4typeERS7_, symObjAddr: 0xF830, symBinAddr: 0x100010B50, symSize: 0x24 }
  - { offsetInCU: 0x16FD0, offset: 0x16FD0, size: 0x8, addend: 0x0, symName: __ZNSt3__116forward_as_tupleB8ue170006IJNS_4pairIiiEEEEENS_5tupleIJDpOT_EEES6_, symObjAddr: 0x10298, symBinAddr: 0x1000115B8, symSize: 0x2C }
  - { offsetInCU: 0x17009, offset: 0x17009, size: 0x8, addend: 0x0, symName: __ZNSt3__1ltB8ue170006IiiiiEEbRKNS_4pairIT_T0_EERKNS1_IT1_T2_EE, symObjAddr: 0x10784, symBinAddr: 0x100011AA4, symSize: 0x98 }
  - { offsetInCU: 0x1706A, offset: 0x1706A, size: 0x8, addend: 0x0, symName: __ZNSt3__13getB8ue170006ILm0EJONS_4pairIiiEEEEERNS_13tuple_elementIXT_ENS_5tupleIJDpT0_EEEE4typeERS8_, symObjAddr: 0x10984, symBinAddr: 0x100011CA4, symSize: 0x24 }
  - { offsetInCU: 0x170C2, offset: 0x170C2, size: 0x8, addend: 0x0, symName: __ZNSt3__14nextB8ue170006INS_21__tree_const_iteratorINS_12__value_typeINS_4pairIiiEE8SamEntryEEPNS_11__tree_nodeIS6_PvEElEEEENS_9enable_ifIXsr29__has_input_iterator_categoryIT_EE5valueESD_E4typeESD_NS_15iterator_traitsISD_E15difference_typeE, symObjAddr: 0x11200, symBinAddr: 0x100012520, symSize: 0x3C }
  - { offsetInCU: 0x17105, offset: 0x17105, size: 0x8, addend: 0x0, symName: __ZNSt3__116__tree_prev_iterB8ue170006IPNS_16__tree_node_baseIPvEEPNS_15__tree_end_nodeIS4_EEEET_T0_, symObjAddr: 0x1125C, symBinAddr: 0x10001257C, symSize: 0x88 }
  - { offsetInCU: 0x17151, offset: 0x17151, size: 0x8, addend: 0x0, symName: __ZNSt3__110__tree_maxB8ue170006IPNS_16__tree_node_baseIPvEEEET_S5_, symObjAddr: 0x112E4, symBinAddr: 0x100012604, symSize: 0x40 }
  - { offsetInCU: 0x17186, offset: 0x17186, size: 0x8, addend: 0x0, symName: __ZNSt3__121__convert_to_integralB8ue170006El, symObjAddr: 0x1135C, symBinAddr: 0x10001267C, symSize: 0x14 }
  - { offsetInCU: 0x171B2, offset: 0x171B2, size: 0x8, addend: 0x0, symName: __ZNSt3__19__advanceB8ue170006INS_21__tree_const_iteratorINS_12__value_typeINS_4pairIiiEE8SamEntryEEPNS_11__tree_nodeIS6_PvEElEEEEvRT_NS_15iterator_traitsISC_E15difference_typeENS_26bidirectional_iterator_tagE, symObjAddr: 0x11370, symBinAddr: 0x100012690, symSize: 0xA4 }
  - { offsetInCU: 0x176E6, offset: 0x176E6, size: 0x8, addend: 0x0, symName: __ZSt28__throw_bad_array_new_lengthB8ue170006v, symObjAddr: 0x6E90, symBinAddr: 0x1000081B0, symSize: 0x34 }
  - { offsetInCU: 0x17EC0, offset: 0x17EC0, size: 0x8, addend: 0x0, symName: __ZNSt3__16vectorI8SamEntryNS_9allocatorIS1_EEE26__swap_out_circular_bufferERNS_14__split_bufferIS1_RS3_EE, symObjAddr: 0x67AC, symBinAddr: 0x100007ACC, symSize: 0x110 }
  - { offsetInCU: 0x18117, offset: 0x18117, size: 0x8, addend: 0x0, symName: __ZNSt3__16vectorINS_4pairIciEENS_9allocatorIS2_EEE26__swap_out_circular_bufferERNS_14__split_bufferIS2_RS4_EE, symObjAddr: 0x8560, symBinAddr: 0x100009880, symSize: 0x110 }
  - { offsetInCU: 0x186F0, offset: 0x186F0, size: 0x8, addend: 0x0, symName: __ZNSt3__16vectorIcNS_9allocatorIcEEE26__swap_out_circular_bufferERNS_14__split_bufferIcRS2_EE, symObjAddr: 0xB600, symBinAddr: 0x10000C920, symSize: 0x110 }
  - { offsetInCU: 0x1B5CE, offset: 0x1B5CE, size: 0x8, addend: 0x0, symName: __Z12parseSamFileRKNSt3__112basic_stringIcNS_11char_traitsIcEENS_9allocatorIcEEEE, symObjAddr: 0x0, symBinAddr: 0x100001320, symSize: 0x488 }
  - { offsetInCU: 0x1B6F3, offset: 0x1B6F3, size: 0x8, addend: 0x0, symName: __ZNSt3__16vectorI8SamEntryNS_9allocatorIS1_EEEC1B8ue170006Ev, symObjAddr: 0x488, symBinAddr: 0x1000017A8, symSize: 0x2C }
  - { offsetInCU: 0x1B71D, offset: 0x1B71D, size: 0x8, addend: 0x0, symName: __ZNSt3__114basic_ifstreamIcNS_11char_traitsIcEEEC1ERKNS_12basic_stringIcS2_NS_9allocatorIcEEEEj, symObjAddr: 0x4B4, symBinAddr: 0x1000017D4, symSize: 0x16C }
  - { offsetInCU: 0x1B767, offset: 0x1B767, size: 0x8, addend: 0x0, symName: __ZNKSt3__19basic_iosIcNS_11char_traitsIcEEEntB8ue170006Ev, symObjAddr: 0x620, symBinAddr: 0x100001940, symSize: 0x28 }
  - { offsetInCU: 0x1B78D, offset: 0x1B78D, size: 0x8, addend: 0x0, symName: __ZNSt3__113basic_ostreamIcNS_11char_traitsIcEEElsB8ue170006EPFRS3_S4_E, symObjAddr: 0x6DC, symBinAddr: 0x1000019FC, symSize: 0x2C }
  - { offsetInCU: 0x1B7C1, offset: 0x1B7C1, size: 0x8, addend: 0x0, symName: __ZNSt3__112basic_stringIcNS_11char_traitsIcEENS_9allocatorIcEEEC1B8ue170006Ev, symObjAddr: 0x760, symBinAddr: 0x100001A80, symSize: 0x2C }
  - { offsetInCU: 0x1B7EB, offset: 0x1B7EB, size: 0x8, addend: 0x0, symName: __ZNKSt3__19basic_iosIcNS_11char_traitsIcEEEcvbB8ue170006Ev, symObjAddr: 0x7E8, symBinAddr: 0x100001B08, symSize: 0x2C }
  - { offsetInCU: 0x1B811, offset: 0x1B811, size: 0x8, addend: 0x0, symName: __ZNSt3__112basic_stringIcNS_11char_traitsIcEENS_9allocatorIcEEEixB8ue170006Em, symObjAddr: 0x814, symBinAddr: 0x100001B34, symSize: 0x30 }
  - { offsetInCU: 0x1B846, offset: 0x1B846, size: 0x8, addend: 0x0, symName: __ZNSt3__119basic_istringstreamIcNS_11char_traitsIcEENS_9allocatorIcEEEC1B8ue170006ERKNS_12basic_stringIcS2_S4_EEj, symObjAddr: 0x844, symBinAddr: 0x100001B64, symSize: 0xFC }
  - { offsetInCU: 0x1B893, offset: 0x1B893, size: 0x8, addend: 0x0, symName: __ZN8SamEntryC1Ev, symObjAddr: 0xC48, symBinAddr: 0x100001F68, symSize: 0x2C }
  - { offsetInCU: 0x1B8BF, offset: 0x1B8BF, size: 0x8, addend: 0x0, symName: __ZNSt3__16vectorI8SamEntryNS_9allocatorIS1_EEE9push_backB8ue170006ERKS1_, symObjAddr: 0xC74, symBinAddr: 0x100001F94, symSize: 0x6C }
  - { offsetInCU: 0x1B8F6, offset: 0x1B8F6, size: 0x8, addend: 0x0, symName: __ZN8SamEntryD1Ev, symObjAddr: 0xCE0, symBinAddr: 0x100002000, symSize: 0x2C }
  - { offsetInCU: 0x1B927, offset: 0x1B927, size: 0x8, addend: 0x0, symName: __ZNSt3__119basic_istringstreamIcNS_11char_traitsIcEENS_9allocatorIcEEED1Ev, symObjAddr: 0xD0C, symBinAddr: 0x10000202C, symSize: 0x40 }
  - { offsetInCU: 0x1B959, offset: 0x1B959, size: 0x8, addend: 0x0, symName: __ZNSt3__114basic_ifstreamIcNS_11char_traitsIcEEED1Ev, symObjAddr: 0xD4C, symBinAddr: 0x10000206C, symSize: 0x40 }
  - { offsetInCU: 0x1B986, offset: 0x1B986, size: 0x8, addend: 0x0, symName: __ZNSt3__16vectorI8SamEntryNS_9allocatorIS1_EEED1B8ue170006Ev, symObjAddr: 0xD8C, symBinAddr: 0x1000020AC, symSize: 0x2C }
  - { offsetInCU: 0x1B9AF, offset: 0x1B9AF, size: 0x8, addend: 0x0, symName: __Z10parseCigarRKNSt3__112basic_stringIcNS_11char_traitsIcEENS_9allocatorIcEEEE, symObjAddr: 0xDB8, symBinAddr: 0x1000020D8, symSize: 0x15C }
  - { offsetInCU: 0x1BA18, offset: 0x1BA18, size: 0x8, addend: 0x0, symName: __ZNSt3__16vectorINS_4pairIciEENS_9allocatorIS2_EEEC1B8ue170006Ev, symObjAddr: 0xF14, symBinAddr: 0x100002234, symSize: 0x2C }
  - { offsetInCU: 0x1BA42, offset: 0x1BA42, size: 0x8, addend: 0x0, symName: __ZNSt3__16vectorINS_4pairIciEENS_9allocatorIS2_EEE9push_backB8ue170006EOS2_, symObjAddr: 0x10CC, symBinAddr: 0x1000023EC, symSize: 0x6C }
  - { offsetInCU: 0x1BA79, offset: 0x1BA79, size: 0x8, addend: 0x0, symName: __ZNSt3__16vectorINS_4pairIciEENS_9allocatorIS2_EEED1B8ue170006Ev, symObjAddr: 0x116C, symBinAddr: 0x10000248C, symSize: 0x2C }
  - { offsetInCU: 0x1BAA2, offset: 0x1BAA2, size: 0x8, addend: 0x0, symName: __Z19addMutationProposalRNSt3__13mapIi16MutationProposalNS_4lessIiEENS_9allocatorINS_4pairIKiS1_EEEEEEiccRKNS_12basic_stringIcNS_11char_traitsIcEENS4_IcEEEERNS_14basic_ofstreamIcSD_EE, symObjAddr: 0x1198, symBinAddr: 0x1000024B8, symSize: 0x26C }
  - { offsetInCU: 0x1BB1F, offset: 0x1BB1F, size: 0x8, addend: 0x0, symName: __ZNKSt3__112basic_stringIcNS_11char_traitsIcEENS_9allocatorIcEEEixB8ue170006Em, symObjAddr: 0x1438, symBinAddr: 0x100002758, symSize: 0x30 }
  - { offsetInCU: 0x1BB54, offset: 0x1BB54, size: 0x8, addend: 0x0, symName: __ZNSt3__13mapIi16MutationProposalNS_4lessIiEENS_9allocatorINS_4pairIKiS1_EEEEEixERS6_, symObjAddr: 0x1468, symBinAddr: 0x100002788, symSize: 0x80 }
  - { offsetInCU: 0x1BB8B, offset: 0x1BB8B, size: 0x8, addend: 0x0, symName: __ZNSt3__16vectorIcNS_9allocatorIcEEE9push_backB8ue170006ERKc, symObjAddr: 0x14E8, symBinAddr: 0x100002808, symSize: 0x6C }
  - { offsetInCU: 0x1BBC1, offset: 0x1BBC1, size: 0x8, addend: 0x0, symName: __Z18getAffectedEntriesRKNSt3__13mapINS_4pairIiiEE8SamEntry16ComparePositionsNS_9allocatorINS1_IKS2_S3_EEEEEEi, symObjAddr: 0x1554, symBinAddr: 0x100002874, symSize: 0x168 }
  - { offsetInCU: 0x1BC54, offset: 0x1BC54, size: 0x8, addend: 0x0, symName: __ZNSt3__13mapINS_4pairIiiEE8SamEntry16ComparePositionsNS_9allocatorINS1_IKS2_S3_EEEEEC1B8ue170006Ev, symObjAddr: 0x16BC, symBinAddr: 0x1000029DC, symSize: 0x2C }
  - { offsetInCU: 0x1BC7E, offset: 0x1BC7E, size: 0x8, addend: 0x0, symName: __ZNKSt3__13mapINS_4pairIiiEE8SamEntry16ComparePositionsNS_9allocatorINS1_IKS2_S3_EEEEE5beginB8ue170006Ev, symObjAddr: 0x16E8, symBinAddr: 0x100002A08, symSize: 0x38 }
  - { offsetInCU: 0x1BCA4, offset: 0x1BCA4, size: 0x8, addend: 0x0, symName: __ZNKSt3__13mapINS_4pairIiiEE8SamEntry16ComparePositionsNS_9allocatorINS1_IKS2_S3_EEEEE3endB8ue170006Ev, symObjAddr: 0x1720, symBinAddr: 0x100002A40, symSize: 0x38 }
  - { offsetInCU: 0x1BCCA, offset: 0x1BCCA, size: 0x8, addend: 0x0, symName: __ZNKSt3__120__map_const_iteratorINS_21__tree_const_iteratorINS_12__value_typeINS_4pairIiiEE8SamEntryEEPNS_11__tree_nodeIS6_PvEElEEEdeB8ue170006Ev, symObjAddr: 0x1788, symBinAddr: 0x100002AA8, symSize: 0x28 }
  - { offsetInCU: 0x1BCF0, offset: 0x1BCF0, size: 0x8, addend: 0x0, symName: __ZNSt3__13mapINS_4pairIiiEE8SamEntry16ComparePositionsNS_9allocatorINS1_IKS2_S3_EEEEE6insertB8ue170006ERKS7_, symObjAddr: 0x17B0, symBinAddr: 0x100002AD0, symSize: 0x4C }
  - { offsetInCU: 0x1BD25, offset: 0x1BD25, size: 0x8, addend: 0x0, symName: __ZNSt3__120__map_const_iteratorINS_21__tree_const_iteratorINS_12__value_typeINS_4pairIiiEE8SamEntryEEPNS_11__tree_nodeIS6_PvEElEEEppB8ue170006Ev, symObjAddr: 0x17FC, symBinAddr: 0x100002B1C, symSize: 0x2C }
  - { offsetInCU: 0x1BD4B, offset: 0x1BD4B, size: 0x8, addend: 0x0, symName: __ZNSt3__13mapINS_4pairIiiEE8SamEntry16ComparePositionsNS_9allocatorINS1_IKS2_S3_EEEEED1B8ue170006Ev, symObjAddr: 0x1828, symBinAddr: 0x100002B48, symSize: 0x2C }
  - { offsetInCU: 0x1BD74, offset: 0x1BD74, size: 0x8, addend: 0x0, symName: __Z15adjustSequencesRNSt3__13mapINS_4pairIiiEE8SamEntry16ComparePositionsNS_9allocatorINS1_IKS2_S3_EEEEEEiccRKNS_12basic_stringIcNS_11char_traitsIcEENS5_IcEEEE, symObjAddr: 0x1854, symBinAddr: 0x100002B74, symSize: 0x414 }
  - { offsetInCU: 0x1BEDA, offset: 0x1BEDA, size: 0x8, addend: 0x0, symName: __ZNSt3__13mapINS_4pairIiiEE8SamEntry16ComparePositionsNS_9allocatorINS1_IKS2_S3_EEEEE5beginB8ue170006Ev, symObjAddr: 0x1C68, symBinAddr: 0x100002F88, symSize: 0x38 }
  - { offsetInCU: 0x1BF00, offset: 0x1BF00, size: 0x8, addend: 0x0, symName: __ZNSt3__13mapINS_4pairIiiEE8SamEntry16ComparePositionsNS_9allocatorINS1_IKS2_S3_EEEEE3endB8ue170006Ev, symObjAddr: 0x1CA0, symBinAddr: 0x100002FC0, symSize: 0x38 }
  - { offsetInCU: 0x1BF26, offset: 0x1BF26, size: 0x8, addend: 0x0, symName: __ZNKSt3__114__map_iteratorINS_15__tree_iteratorINS_12__value_typeINS_4pairIiiEE8SamEntryEEPNS_11__tree_nodeIS6_PvEElEEEdeB8ue170006Ev, symObjAddr: 0x1D08, symBinAddr: 0x100003028, symSize: 0x28 }
  - { offsetInCU: 0x1BF4C, offset: 0x1BF4C, size: 0x8, addend: 0x0, symName: __ZNSt3__16vectorINS_4pairIciEENS_9allocatorIS2_EEE5beginB8ue170006Ev, symObjAddr: 0x1D30, symBinAddr: 0x100003050, symSize: 0x30 }
  - { offsetInCU: 0x1BF74, offset: 0x1BF74, size: 0x8, addend: 0x0, symName: __ZNSt3__16vectorINS_4pairIciEENS_9allocatorIS2_EEE3endB8ue170006Ev, symObjAddr: 0x1D60, symBinAddr: 0x100003080, symSize: 0x30 }
  - { offsetInCU: 0x1BF9C, offset: 0x1BF9C, size: 0x8, addend: 0x0, symName: __ZNKSt3__111__wrap_iterIPNS_4pairIciEEEdeB8ue170006Ev, symObjAddr: 0x1DC4, symBinAddr: 0x1000030E4, symSize: 0x18 }
  - { offsetInCU: 0x1BFC2, offset: 0x1BFC2, size: 0x8, addend: 0x0, symName: __ZNKSt3__112basic_stringIcNS_11char_traitsIcEENS_9allocatorIcEEE4sizeB8ue170006Ev, symObjAddr: 0x1DDC, symBinAddr: 0x1000030FC, symSize: 0x54 }
  - { offsetInCU: 0x1BFE8, offset: 0x1BFE8, size: 0x8, addend: 0x0, symName: __ZNSt3__111__wrap_iterIPNS_4pairIciEEEppB8ue170006Ev, symObjAddr: 0x1E30, symBinAddr: 0x100003150, symSize: 0x20 }
  - { offsetInCU: 0x1C00E, offset: 0x1C00E, size: 0x8, addend: 0x0, symName: __ZNSt3__114__map_iteratorINS_15__tree_iteratorINS_12__value_typeINS_4pairIiiEE8SamEntryEEPNS_11__tree_nodeIS6_PvEElEEEppB8ue170006Ev, symObjAddr: 0x1E50, symBinAddr: 0x100003170, symSize: 0x2C }
  - { offsetInCU: 0x1C033, offset: 0x1C033, size: 0x8, addend: 0x0, symName: __Z15detectMutationsRNSt3__13mapINS_4pairIiiEE8SamEntry16ComparePositionsNS_9allocatorINS1_IKS2_S3_EEEEEERKNS_12basic_stringIcNS_11char_traitsIcEENS5_IcEEEESH_SH_, symObjAddr: 0x1E7C, symBinAddr: 0x10000319C, symSize: 0xCC4 }
  - { offsetInCU: 0x1C373, offset: 0x1C373, size: 0x8, addend: 0x0, symName: __ZNSt3__114basic_ofstreamIcNS_11char_traitsIcEEEC1ERKNS_12basic_stringIcS2_NS_9allocatorIcEEEEj, symObjAddr: 0x2B40, symBinAddr: 0x100003E60, symSize: 0x16C }
  - { offsetInCU: 0x1C3BD, offset: 0x1C3BD, size: 0x8, addend: 0x0, symName: __ZNSt3__13mapIi16MutationProposalNS_4lessIiEENS_9allocatorINS_4pairIKiS1_EEEEEC1B8ue170006Ev, symObjAddr: 0x2CAC, symBinAddr: 0x100003FCC, symSize: 0x2C }
  - { offsetInCU: 0x1C3E7, offset: 0x1C3E7, size: 0x8, addend: 0x0, symName: __ZNKSt3__13mapINS_4pairIiiEE8SamEntry16ComparePositionsNS_9allocatorINS1_IKS2_S3_EEEEE5emptyB8ue170006Ev, symObjAddr: 0x2CD8, symBinAddr: 0x100003FF8, symSize: 0x34 }
  - { offsetInCU: 0x1C40D, offset: 0x1C40D, size: 0x8, addend: 0x0, symName: __ZNSt3__112basic_stringIcNS_11char_traitsIcEENS_9allocatorIcEEE5beginB8ue170006Ev, symObjAddr: 0x2D48, symBinAddr: 0x100004068, symSize: 0x4C }
  - { offsetInCU: 0x1C433, offset: 0x1C433, size: 0x8, addend: 0x0, symName: __ZNSt3__112basic_stringIcNS_11char_traitsIcEENS_9allocatorIcEEE3endB8ue170006Ev, symObjAddr: 0x2D94, symBinAddr: 0x1000040B4, symSize: 0x54 }
  - { offsetInCU: 0x1C459, offset: 0x1C459, size: 0x8, addend: 0x0, symName: __ZNKSt3__16vectorIcNS_9allocatorIcEEE5emptyB8ue170006Ev, symObjAddr: 0x2DE8, symBinAddr: 0x100004108, symSize: 0x28 }
  - { offsetInCU: 0x1C47F, offset: 0x1C47F, size: 0x8, addend: 0x0, symName: __ZNSt3__13mapIciNS_4lessIcEENS_9allocatorINS_4pairIKciEEEEEC1B8ue170006Ev, symObjAddr: 0x2E10, symBinAddr: 0x100004130, symSize: 0x2C }
  - { offsetInCU: 0x1C4A9, offset: 0x1C4A9, size: 0x8, addend: 0x0, symName: __ZNKSt3__16vectorIcNS_9allocatorIcEEE5beginB8ue170006Ev, symObjAddr: 0x2E3C, symBinAddr: 0x10000415C, symSize: 0x30 }
  - { offsetInCU: 0x1C4D1, offset: 0x1C4D1, size: 0x8, addend: 0x0, symName: __ZNKSt3__16vectorIcNS_9allocatorIcEEE3endB8ue170006Ev, symObjAddr: 0x2E6C, symBinAddr: 0x10000418C, symSize: 0x30 }
  - { offsetInCU: 0x1C4F9, offset: 0x1C4F9, size: 0x8, addend: 0x0, symName: __ZNKSt3__111__wrap_iterIPKcEdeB8ue170006Ev, symObjAddr: 0x2ED0, symBinAddr: 0x1000041F0, symSize: 0x18 }
  - { offsetInCU: 0x1C51F, offset: 0x1C51F, size: 0x8, addend: 0x0, symName: __ZNSt3__13mapIciNS_4lessIcEENS_9allocatorINS_4pairIKciEEEEEixERS5_, symObjAddr: 0x2EE8, symBinAddr: 0x100004208, symSize: 0x80 }
  - { offsetInCU: 0x1C556, offset: 0x1C556, size: 0x8, addend: 0x0, symName: __ZNSt3__111__wrap_iterIPKcEppB8ue170006Ev, symObjAddr: 0x2F68, symBinAddr: 0x100004288, symSize: 0x20 }
  - { offsetInCU: 0x1C57C, offset: 0x1C57C, size: 0x8, addend: 0x0, symName: __ZNSt3__13mapIciNS_4lessIcEENS_9allocatorINS_4pairIKciEEEEE5beginB8ue170006Ev, symObjAddr: 0x2FD0, symBinAddr: 0x1000042F0, symSize: 0x38 }
  - { offsetInCU: 0x1C5A2, offset: 0x1C5A2, size: 0x8, addend: 0x0, symName: __ZNSt3__13mapIciNS_4lessIcEENS_9allocatorINS_4pairIKciEEEEE3endB8ue170006Ev, symObjAddr: 0x3008, symBinAddr: 0x100004328, symSize: 0x38 }
  - { offsetInCU: 0x1C5C8, offset: 0x1C5C8, size: 0x8, addend: 0x0, symName: __ZNKSt3__114__map_iteratorINS_15__tree_iteratorINS_12__value_typeIciEEPNS_11__tree_nodeIS3_PvEElEEEptB8ue170006Ev, symObjAddr: 0x3040, symBinAddr: 0x100004360, symSize: 0x2C }
  - { offsetInCU: 0x1C5EE, offset: 0x1C5EE, size: 0x8, addend: 0x0, symName: __ZNSt3__13mapIciNS_4lessIcEENS_9allocatorINS_4pairIKciEEEEED1B8ue170006Ev, symObjAddr: 0x306C, symBinAddr: 0x10000438C, symSize: 0x2C }
  - { offsetInCU: 0x1C618, offset: 0x1C618, size: 0x8, addend: 0x0, symName: __ZNSt3__112basic_stringIcNS_11char_traitsIcEENS_9allocatorIcEEEaSB8ue170006EPKc, symObjAddr: 0x3098, symBinAddr: 0x1000043B8, symSize: 0x2C }
  - { offsetInCU: 0x1C64D, offset: 0x1C64D, size: 0x8, addend: 0x0, symName: __ZNSt3__13mapIi16MutationProposalNS_4lessIiEENS_9allocatorINS_4pairIKiS1_EEEEED1B8ue170006Ev, symObjAddr: 0x31B8, symBinAddr: 0x1000044D8, symSize: 0x2C }
  - { offsetInCU: 0x1C677, offset: 0x1C677, size: 0x8, addend: 0x0, symName: __ZNSt3__114basic_ofstreamIcNS_11char_traitsIcEEE5closeEv, symObjAddr: 0x31E4, symBinAddr: 0x100004504, symSize: 0x58 }
  - { offsetInCU: 0x1C6A4, offset: 0x1C6A4, size: 0x8, addend: 0x0, symName: __ZNSt3__114basic_ofstreamIcNS_11char_traitsIcEEED1Ev, symObjAddr: 0x323C, symBinAddr: 0x10000455C, symSize: 0x40 }
  - { offsetInCU: 0x1C6D1, offset: 0x1C6D1, size: 0x8, addend: 0x0, symName: _main, symObjAddr: 0x327C, symBinAddr: 0x10000459C, symSize: 0x4C8 }
  - { offsetInCU: 0x1C892, offset: 0x1C892, size: 0x8, addend: 0x0, symName: __ZNSt3__112basic_stringIcNS_11char_traitsIcEENS_9allocatorIcEEEC1B8ue170006ILi0EEEPKc, symObjAddr: 0x3744, symBinAddr: 0x100004A64, symSize: 0x34 }
  - { offsetInCU: 0x1C8D1, offset: 0x1C8D1, size: 0x8, addend: 0x0, symName: __ZNSt3__13mapINS_4pairIiiEE8SamEntryNS_4lessIS2_EENS_9allocatorINS1_IKS2_S3_EEEEEC1B8ue170006Ev, symObjAddr: 0x3778, symBinAddr: 0x100004A98, symSize: 0x2C }
  - { offsetInCU: 0x1C8FB, offset: 0x1C8FB, size: 0x8, addend: 0x0, symName: __ZNSt3__16vectorI8SamEntryNS_9allocatorIS1_EEE5beginB8ue170006Ev, symObjAddr: 0x37A4, symBinAddr: 0x100004AC4, symSize: 0x30 }
  - { offsetInCU: 0x1C923, offset: 0x1C923, size: 0x8, addend: 0x0, symName: __ZNSt3__16vectorI8SamEntryNS_9allocatorIS1_EEE3endB8ue170006Ev, symObjAddr: 0x37D4, symBinAddr: 0x100004AF4, symSize: 0x30 }
  - { offsetInCU: 0x1C94B, offset: 0x1C94B, size: 0x8, addend: 0x0, symName: __ZNKSt3__111__wrap_iterIP8SamEntryEdeB8ue170006Ev, symObjAddr: 0x3838, symBinAddr: 0x100004B58, symSize: 0x18 }
  - { offsetInCU: 0x1C971, offset: 0x1C971, size: 0x8, addend: 0x0, symName: __ZNSt3__13mapINS_4pairIiiEE8SamEntryNS_4lessIS2_EENS_9allocatorINS1_IKS2_S3_EEEEEixEOS2_, symObjAddr: 0x3850, symBinAddr: 0x100004B70, symSize: 0x80 }
  - { offsetInCU: 0x1C9A8, offset: 0x1C9A8, size: 0x8, addend: 0x0, symName: __ZNSt3__14pairIiiEC1B8ue170006IRiS3_LPv0EEEOT_OT0_, symObjAddr: 0x38D0, symBinAddr: 0x100004BF0, symSize: 0x3C }
  - { offsetInCU: 0x1CA06, offset: 0x1CA06, size: 0x8, addend: 0x0, symName: __ZN8SamEntryaSERKS_, symObjAddr: 0x390C, symBinAddr: 0x100004C2C, symSize: 0x5C }
  - { offsetInCU: 0x1CA37, offset: 0x1CA37, size: 0x8, addend: 0x0, symName: __ZNSt3__111__wrap_iterIP8SamEntryEppB8ue170006Ev, symObjAddr: 0x3968, symBinAddr: 0x100004C88, symSize: 0x20 }
  - { offsetInCU: 0x1CA5D, offset: 0x1CA5D, size: 0x8, addend: 0x0, symName: __ZNSt3__13mapINS_4pairIiiEE8SamEntryNS_4lessIS2_EENS_9allocatorINS1_IKS2_S3_EEEEE5beginB8ue170006Ev, symObjAddr: 0x3988, symBinAddr: 0x100004CA8, symSize: 0x38 }
  - { offsetInCU: 0x1CA83, offset: 0x1CA83, size: 0x8, addend: 0x0, symName: __ZNSt3__13mapINS_4pairIiiEE8SamEntryNS_4lessIS2_EENS_9allocatorINS1_IKS2_S3_EEEEE3endB8ue170006Ev, symObjAddr: 0x39C0, symBinAddr: 0x100004CE0, symSize: 0x38 }
  - { offsetInCU: 0x1CAA9, offset: 0x1CAA9, size: 0x8, addend: 0x0, symName: __ZNSt3__13mapINS_4pairIiiEE8SamEntry16ComparePositionsNS_9allocatorINS1_IKS2_S3_EEEEEC1B8ue170006INS_14__map_iteratorINS_15__tree_iteratorINS_12__value_typeIS2_S3_EEPNS_11__tree_nodeISE_PvEElEEEEEET_SL_RKS4_, symObjAddr: 0x39F8, symBinAddr: 0x100004D18, symSize: 0x44 }
  - { offsetInCU: 0x1CB09, offset: 0x1CB09, size: 0x8, addend: 0x0, symName: __ZNSt3__112basic_stringIcNS_11char_traitsIcEENS_9allocatorIcEEEpLB8ue170006ERKS5_, symObjAddr: 0x3A3C, symBinAddr: 0x100004D5C, symSize: 0x2C }
  - { offsetInCU: 0x1CB3E, offset: 0x1CB3E, size: 0x8, addend: 0x0, symName: __ZNSt3__13mapINS_4pairIiiEE8SamEntryNS_4lessIS2_EENS_9allocatorINS1_IKS2_S3_EEEEED1B8ue170006Ev, symObjAddr: 0x3A68, symBinAddr: 0x100004D88, symSize: 0x2C }
  - { offsetInCU: 0x1CB68, offset: 0x1CB68, size: 0x8, addend: 0x0, symName: __ZN8SamEntryC2Ev, symObjAddr: 0x3A94, symBinAddr: 0x100004DB4, symSize: 0x3C }
  - { offsetInCU: 0x1CB94, offset: 0x1CB94, size: 0x8, addend: 0x0, symName: __ZN8SamEntryD2Ev, symObjAddr: 0x3AD0, symBinAddr: 0x100004DF0, symSize: 0x3C }
  - { offsetInCU: 0x1CBC0, offset: 0x1CBC0, size: 0x8, addend: 0x0, symName: __ZNSt3__119basic_istringstreamIcNS_11char_traitsIcEENS_9allocatorIcEEED2Ev, symObjAddr: 0x3B0C, symBinAddr: 0x100004E2C, symSize: 0x64 }
  - { offsetInCU: 0x1CBFA, offset: 0x1CBFA, size: 0x8, addend: 0x0, symName: __ZTv0_n24_NSt3__119basic_istringstreamIcNS_11char_traitsIcEENS_9allocatorIcEEED1Ev, symObjAddr: 0x3B70, symBinAddr: 0x100004E90, symSize: 0x28 }
  - { offsetInCU: 0x1CC16, offset: 0x1CC16, size: 0x8, addend: 0x0, symName: __ZNSt3__115basic_stringbufIcNS_11char_traitsIcEENS_9allocatorIcEEED1Ev, symObjAddr: 0x3B98, symBinAddr: 0x100004EB8, symSize: 0x2C }
  - { offsetInCU: 0x1CC43, offset: 0x1CC43, size: 0x8, addend: 0x0, symName: __ZNSt3__115basic_stringbufIcNS_11char_traitsIcEENS_9allocatorIcEEED2Ev, symObjAddr: 0x3BC4, symBinAddr: 0x100004EE4, symSize: 0x48 }
  - { offsetInCU: 0x1CC70, offset: 0x1CC70, size: 0x8, addend: 0x0, symName: __ZNSt3__114basic_ifstreamIcNS_11char_traitsIcEEED2Ev, symObjAddr: 0x3C0C, symBinAddr: 0x100004F2C, symSize: 0x64 }
  - { offsetInCU: 0x1CCAA, offset: 0x1CCAA, size: 0x8, addend: 0x0, symName: __ZTv0_n24_NSt3__114basic_ifstreamIcNS_11char_traitsIcEEED1Ev, symObjAddr: 0x3C70, symBinAddr: 0x100004F90, symSize: 0x28 }
  - { offsetInCU: 0x1CCC1, offset: 0x1CCC1, size: 0x8, addend: 0x0, symName: __ZNSt3__14pairIciEC1B8ue170006IRcRiLPv0EEEOT_OT0_, symObjAddr: 0x3C98, symBinAddr: 0x100004FB8, symSize: 0x3C }
  - { offsetInCU: 0x1CD1F, offset: 0x1CD1F, size: 0x8, addend: 0x0, symName: __ZNSt3__14pairIciEC2B8ue170006IRcRiLPv0EEEOT_OT0_, symObjAddr: 0x3CD4, symBinAddr: 0x100004FF4, symSize: 0x34 }
  - { offsetInCU: 0x1CD7D, offset: 0x1CD7D, size: 0x8, addend: 0x0, symName: __ZNKSt3__111__wrap_iterIPNS_4pairIciEEE4baseB8ue170006Ev, symObjAddr: 0x3D50, symBinAddr: 0x100005070, symSize: 0x18 }
  - { offsetInCU: 0x1CDA3, offset: 0x1CDA3, size: 0x8, addend: 0x0, symName: __ZNKSt3__111__wrap_iterIPKcE4baseB8ue170006Ev, symObjAddr: 0x3DB0, symBinAddr: 0x1000050D0, symSize: 0x18 }
  - { offsetInCU: 0x1CDC9, offset: 0x1CDC9, size: 0x8, addend: 0x0, symName: __ZNSt3__114__map_iteratorINS_15__tree_iteratorINS_12__value_typeIciEEPNS_11__tree_nodeIS3_PvEElEEEppB8ue170006Ev, symObjAddr: 0x3ECC, symBinAddr: 0x1000051EC, symSize: 0x2C }
  - { offsetInCU: 0x1CDF9, offset: 0x1CDF9, size: 0x8, addend: 0x0, symName: '__ZZ15detectMutationsRNSt3__13mapINS_4pairIiiEE8SamEntry16ComparePositionsNS_9allocatorINS1_IKS2_S3_EEEEEERKNS_12basic_stringIcNS_11char_traitsIcEENS5_IcEEEESH_SH_ENK3$_0clERKNS1_IciEESL_', symObjAddr: 0x3EF8, symBinAddr: 0x100005218, symSize: 0x34 }
  - { offsetInCU: 0x1CE41, offset: 0x1CE41, size: 0x8, addend: 0x0, symName: __ZNKSt3__114__map_iteratorINS_15__tree_iteratorINS_12__value_typeIciEEPNS_11__tree_nodeIS3_PvEElEEEdeB8ue170006Ev, symObjAddr: 0x3F2C, symBinAddr: 0x10000524C, symSize: 0x28 }
  - { offsetInCU: 0x1CE67, offset: 0x1CE67, size: 0x8, addend: 0x0, symName: __ZNSt3__14pairIciEC1B8ue170006IKciLPv0EEERKNS0_IT_T0_EE, symObjAddr: 0x3F54, symBinAddr: 0x100005274, symSize: 0x34 }
  - { offsetInCU: 0x1CEB7, offset: 0x1CEB7, size: 0x8, addend: 0x0, symName: __ZNSt3__115__tree_iteratorINS_12__value_typeIciEEPNS_11__tree_nodeIS2_PvEElEppB8ue170006Ev, symObjAddr: 0x3FEC, symBinAddr: 0x10000530C, symSize: 0x38 }
  - { offsetInCU: 0x1CEDD, offset: 0x1CEDD, size: 0x8, addend: 0x0, symName: __ZNKSt3__116__tree_node_baseIPvE15__parent_unsafeB8ue170006Ev, symObjAddr: 0x4120, symBinAddr: 0x100005440, symSize: 0x18 }
  - { offsetInCU: 0x1CF03, offset: 0x1CF03, size: 0x8, addend: 0x0, symName: __ZNKSt3__115__tree_iteratorINS_12__value_typeIciEEPNS_11__tree_nodeIS2_PvEElEptB8ue170006Ev, symObjAddr: 0x4144, symBinAddr: 0x100005464, symSize: 0x2C }
  - { offsetInCU: 0x1CF29, offset: 0x1CF29, size: 0x8, addend: 0x0, symName: __ZNSt3__112__value_typeIciE11__get_valueB8ue170006Ev, symObjAddr: 0x4170, symBinAddr: 0x100005490, symSize: 0x14 }
  - { offsetInCU: 0x1CF4F, offset: 0x1CF4F, size: 0x8, addend: 0x0, symName: __ZNSt3__114pointer_traitsIPNS_12__value_typeIciEEE10pointer_toB8ue170006ERS2_, symObjAddr: 0x4184, symBinAddr: 0x1000054A4, symSize: 0x14 }
  - { offsetInCU: 0x1CF72, offset: 0x1CF72, size: 0x8, addend: 0x0, symName: __ZNKSt3__115__tree_iteratorINS_12__value_typeIciEEPNS_11__tree_nodeIS2_PvEElE8__get_npB8ue170006Ev, symObjAddr: 0x4198, symBinAddr: 0x1000054B8, symSize: 0x18 }
  - { offsetInCU: 0x1CF98, offset: 0x1CF98, size: 0x8, addend: 0x0, symName: __ZNSt3__14pairIciEC2B8ue170006IKciLPv0EEERKNS0_IT_T0_EE, symObjAddr: 0x41B0, symBinAddr: 0x1000054D0, symSize: 0x30 }
  - { offsetInCU: 0x1CFF2, offset: 0x1CFF2, size: 0x8, addend: 0x0, symName: '__ZZ15detectMutationsRNSt3__13mapINS_4pairIiiEE8SamEntry16ComparePositionsNS_9allocatorINS1_IKS2_S3_EEEEEERKNS_12basic_stringIcNS_11char_traitsIcEENS5_IcEEEESH_SH_ENK3$_1clERKNS1_IciEESL_', symObjAddr: 0x42B4, symBinAddr: 0x1000055D4, symSize: 0x34 }
  - { offsetInCU: 0x1D03A, offset: 0x1D03A, size: 0x8, addend: 0x0, symName: __ZNSt3__114basic_ofstreamIcNS_11char_traitsIcEEED2Ev, symObjAddr: 0x42E8, symBinAddr: 0x100005608, symSize: 0x64 }
  - { offsetInCU: 0x1D074, offset: 0x1D074, size: 0x8, addend: 0x0, symName: __ZTv0_n24_NSt3__114basic_ofstreamIcNS_11char_traitsIcEEED1Ev, symObjAddr: 0x434C, symBinAddr: 0x10000566C, symSize: 0x28 }
  - { offsetInCU: 0x1D08B, offset: 0x1D08B, size: 0x8, addend: 0x0, symName: __ZNKSt3__111__wrap_iterIP8SamEntryE4baseB8ue170006Ev, symObjAddr: 0x43BC, symBinAddr: 0x1000056DC, symSize: 0x18 }
  - { offsetInCU: 0x1D0B1, offset: 0x1D0B1, size: 0x8, addend: 0x0, symName: __ZNSt3__14pairIiiEC2B8ue170006IRiS3_LPv0EEEOT_OT0_, symObjAddr: 0x43D4, symBinAddr: 0x1000056F4, symSize: 0x34 }
  - { offsetInCU: 0x1D10F, offset: 0x1D10F, size: 0x8, addend: 0x0, symName: __ZNSt3__112basic_stringIcNS_11char_traitsIcEENS_9allocatorIcEEEC2B8ue170006Ev, symObjAddr: 0x4408, symBinAddr: 0x100005728, symSize: 0x48 }
  - { offsetInCU: 0x1D13F, offset: 0x1D13F, size: 0x8, addend: 0x0, symName: __ZNSt3__117__compressed_pairINS_12basic_stringIcNS_11char_traitsIcEENS_9allocatorIcEEE5__repES5_EC1B8ue170006INS_18__default_init_tagESA_EEOT_OT0_, symObjAddr: 0x4450, symBinAddr: 0x100005770, symSize: 0x3C }
  - { offsetInCU: 0x1D197, offset: 0x1D197, size: 0x8, addend: 0x0, symName: __ZNSt3__112basic_stringIcNS_11char_traitsIcEENS_9allocatorIcEEE14__default_initB8ue170006Ev, symObjAddr: 0x448C, symBinAddr: 0x1000057AC, symSize: 0x40 }
  - { offsetInCU: 0x1D1BD, offset: 0x1D1BD, size: 0x8, addend: 0x0, symName: __ZNSt3__117__compressed_pairINS_12basic_stringIcNS_11char_traitsIcEENS_9allocatorIcEEE5__repES5_EC2B8ue170006INS_18__default_init_tagESA_EEOT_OT0_, symObjAddr: 0x44CC, symBinAddr: 0x1000057EC, symSize: 0x3C }
  - { offsetInCU: 0x1D215, offset: 0x1D215, size: 0x8, addend: 0x0, symName: __ZNSt3__122__compressed_pair_elemINS_12basic_stringIcNS_11char_traitsIcEENS_9allocatorIcEEE5__repELi0ELb0EEC2B8ue170006ENS_18__default_init_tagE, symObjAddr: 0x4508, symBinAddr: 0x100005828, symSize: 0x14 }
  - { offsetInCU: 0x1D249, offset: 0x1D249, size: 0x8, addend: 0x0, symName: __ZNSt3__122__compressed_pair_elemINS_9allocatorIcEELi1ELb1EEC2B8ue170006ENS_18__default_init_tagE, symObjAddr: 0x451C, symBinAddr: 0x10000583C, symSize: 0x2C }
  - { offsetInCU: 0x1D27D, offset: 0x1D27D, size: 0x8, addend: 0x0, symName: __ZNSt3__19allocatorIcEC2B8ue170006Ev, symObjAddr: 0x4548, symBinAddr: 0x100005868, symSize: 0x2C }
  - { offsetInCU: 0x1D2A7, offset: 0x1D2A7, size: 0x8, addend: 0x0, symName: __ZNSt3__116__non_trivial_ifILb1ENS_9allocatorIcEEEC2B8ue170006Ev, symObjAddr: 0x4574, symBinAddr: 0x100005894, symSize: 0x14 }
  - { offsetInCU: 0x1D2D1, offset: 0x1D2D1, size: 0x8, addend: 0x0, symName: __ZNSt3__117__compressed_pairINS_12basic_stringIcNS_11char_traitsIcEENS_9allocatorIcEEE5__repES5_E5firstB8ue170006Ev, symObjAddr: 0x4588, symBinAddr: 0x1000058A8, symSize: 0x24 }
  - { offsetInCU: 0x1D2F7, offset: 0x1D2F7, size: 0x8, addend: 0x0, symName: __ZNSt3__122__compressed_pair_elemINS_12basic_stringIcNS_11char_traitsIcEENS_9allocatorIcEEE5__repELi0ELb0EE5__getB8ue170006Ev, symObjAddr: 0x45AC, symBinAddr: 0x1000058CC, symSize: 0x14 }
  - { offsetInCU: 0x1D31D, offset: 0x1D31D, size: 0x8, addend: 0x0, symName: __ZNSt3__112basic_stringIcNS_11char_traitsIcEENS_9allocatorIcEEE6appendB8ue170006ERKS5_, symObjAddr: 0x45C0, symBinAddr: 0x1000058E0, symSize: 0x4C }
  - { offsetInCU: 0x1D352, offset: 0x1D352, size: 0x8, addend: 0x0, symName: __ZNKSt3__112basic_stringIcNS_11char_traitsIcEENS_9allocatorIcEEE4dataB8ue170006Ev, symObjAddr: 0x460C, symBinAddr: 0x10000592C, symSize: 0x28 }
  - { offsetInCU: 0x1D378, offset: 0x1D378, size: 0x8, addend: 0x0, symName: __ZNKSt3__112basic_stringIcNS_11char_traitsIcEENS_9allocatorIcEEE13__get_pointerB8ue170006Ev, symObjAddr: 0x4648, symBinAddr: 0x100005968, symSize: 0x54 }
  - { offsetInCU: 0x1D39E, offset: 0x1D39E, size: 0x8, addend: 0x0, symName: __ZNKSt3__112basic_stringIcNS_11char_traitsIcEENS_9allocatorIcEEE9__is_longB8ue170006Ev, symObjAddr: 0x469C, symBinAddr: 0x1000059BC, symSize: 0x38 }
  - { offsetInCU: 0x1D3C4, offset: 0x1D3C4, size: 0x8, addend: 0x0, symName: __ZNKSt3__112basic_stringIcNS_11char_traitsIcEENS_9allocatorIcEEE18__get_long_pointerB8ue170006Ev, symObjAddr: 0x46D4, symBinAddr: 0x1000059F4, symSize: 0x28 }
  - { offsetInCU: 0x1D3EA, offset: 0x1D3EA, size: 0x8, addend: 0x0, symName: __ZNKSt3__112basic_stringIcNS_11char_traitsIcEENS_9allocatorIcEEE19__get_short_pointerB8ue170006Ev, symObjAddr: 0x46FC, symBinAddr: 0x100005A1C, symSize: 0x28 }
  - { offsetInCU: 0x1D410, offset: 0x1D410, size: 0x8, addend: 0x0, symName: __ZNKSt3__117__compressed_pairINS_12basic_stringIcNS_11char_traitsIcEENS_9allocatorIcEEE5__repES5_E5firstB8ue170006Ev, symObjAddr: 0x4724, symBinAddr: 0x100005A44, symSize: 0x24 }
  - { offsetInCU: 0x1D436, offset: 0x1D436, size: 0x8, addend: 0x0, symName: __ZNKSt3__122__compressed_pair_elemINS_12basic_stringIcNS_11char_traitsIcEENS_9allocatorIcEEE5__repELi0ELb0EE5__getB8ue170006Ev, symObjAddr: 0x4748, symBinAddr: 0x100005A68, symSize: 0x14 }
  - { offsetInCU: 0x1D45C, offset: 0x1D45C, size: 0x8, addend: 0x0, symName: __ZNSt3__114pointer_traitsIPKcE10pointer_toB8ue170006ERS1_, symObjAddr: 0x475C, symBinAddr: 0x100005A7C, symSize: 0x14 }
  - { offsetInCU: 0x1D47F, offset: 0x1D47F, size: 0x8, addend: 0x0, symName: __ZNSt3__16vectorI8SamEntryNS_9allocatorIS1_EEEC2B8ue170006Ev, symObjAddr: 0x4770, symBinAddr: 0x100005A90, symSize: 0x4C }
  - { offsetInCU: 0x1D4AF, offset: 0x1D4AF, size: 0x8, addend: 0x0, symName: __ZNSt3__117__compressed_pairIP8SamEntryNS_9allocatorIS1_EEEC1B8ue170006IDnNS_18__default_init_tagEEEOT_OT0_, symObjAddr: 0x47BC, symBinAddr: 0x100005ADC, symSize: 0x3C }
  - { offsetInCU: 0x1D507, offset: 0x1D507, size: 0x8, addend: 0x0, symName: __ZNSt3__117__compressed_pairIP8SamEntryNS_9allocatorIS1_EEEC2B8ue170006IDnNS_18__default_init_tagEEEOT_OT0_, symObjAddr: 0x47F8, symBinAddr: 0x100005B18, symSize: 0x40 }
  - { offsetInCU: 0x1D55F, offset: 0x1D55F, size: 0x8, addend: 0x0, symName: __ZNSt3__122__compressed_pair_elemIP8SamEntryLi0ELb0EEC2B8ue170006IDnvEEOT_, symObjAddr: 0x4838, symBinAddr: 0x100005B58, symSize: 0x1C }
  - { offsetInCU: 0x1D5A1, offset: 0x1D5A1, size: 0x8, addend: 0x0, symName: __ZNSt3__122__compressed_pair_elemINS_9allocatorI8SamEntryEELi1ELb1EEC2B8ue170006ENS_18__default_init_tagE, symObjAddr: 0x4854, symBinAddr: 0x100005B74, symSize: 0x2C }
  - { offsetInCU: 0x1D5D5, offset: 0x1D5D5, size: 0x8, addend: 0x0, symName: __ZNSt3__19allocatorI8SamEntryEC2B8ue170006Ev, symObjAddr: 0x4880, symBinAddr: 0x100005BA0, symSize: 0x2C }
  - { offsetInCU: 0x1D5FF, offset: 0x1D5FF, size: 0x8, addend: 0x0, symName: __ZNSt3__116__non_trivial_ifILb1ENS_9allocatorI8SamEntryEEEC2B8ue170006Ev, symObjAddr: 0x48AC, symBinAddr: 0x100005BCC, symSize: 0x14 }
  - { offsetInCU: 0x1D629, offset: 0x1D629, size: 0x8, addend: 0x0, symName: __ZNSt3__16vectorI8SamEntryNS_9allocatorIS1_EEED2B8ue170006Ev, symObjAddr: 0x48C0, symBinAddr: 0x100005BE0, symSize: 0x44 }
  - { offsetInCU: 0x1D653, offset: 0x1D653, size: 0x8, addend: 0x0, symName: __ZNSt3__16vectorI8SamEntryNS_9allocatorIS1_EEE16__destroy_vectorC1B8ue170006ERS4_, symObjAddr: 0x4904, symBinAddr: 0x100005C24, symSize: 0x34 }
  - { offsetInCU: 0x1D68C, offset: 0x1D68C, size: 0x8, addend: 0x0, symName: __ZNSt3__16vectorI8SamEntryNS_9allocatorIS1_EEE16__destroy_vectorclB8ue170006Ev, symObjAddr: 0x4938, symBinAddr: 0x100005C58, symSize: 0x90 }
  - { offsetInCU: 0x1D6B2, offset: 0x1D6B2, size: 0x8, addend: 0x0, symName: __ZNSt3__16vectorI8SamEntryNS_9allocatorIS1_EEE16__destroy_vectorC2B8ue170006ERS4_, symObjAddr: 0x49C8, symBinAddr: 0x100005CE8, symSize: 0x20 }
  - { offsetInCU: 0x1D6EB, offset: 0x1D6EB, size: 0x8, addend: 0x0, symName: __ZNSt3__16vectorI8SamEntryNS_9allocatorIS1_EEE7__clearB8ue170006Ev, symObjAddr: 0x49E8, symBinAddr: 0x100005D08, symSize: 0x28 }
  - { offsetInCU: 0x1D711, offset: 0x1D711, size: 0x8, addend: 0x0, symName: __ZNKSt3__16vectorI8SamEntryNS_9allocatorIS1_EEE17__annotate_deleteB8ue170006Ev, symObjAddr: 0x4A10, symBinAddr: 0x100005D30, symSize: 0xD4 }
  - { offsetInCU: 0x1D737, offset: 0x1D737, size: 0x8, addend: 0x0, symName: __ZNSt3__116allocator_traitsINS_9allocatorI8SamEntryEEE10deallocateB8ue170006ERS3_PS2_m, symObjAddr: 0x4AE4, symBinAddr: 0x100005E04, symSize: 0x34 }
  - { offsetInCU: 0x1D779, offset: 0x1D779, size: 0x8, addend: 0x0, symName: __ZNSt3__16vectorI8SamEntryNS_9allocatorIS1_EEE7__allocB8ue170006Ev, symObjAddr: 0x4B18, symBinAddr: 0x100005E38, symSize: 0x28 }
  - { offsetInCU: 0x1D79F, offset: 0x1D79F, size: 0x8, addend: 0x0, symName: __ZNKSt3__16vectorI8SamEntryNS_9allocatorIS1_EEE8capacityB8ue170006Ev, symObjAddr: 0x4B40, symBinAddr: 0x100005E60, symSize: 0x40 }
  - { offsetInCU: 0x1D7C5, offset: 0x1D7C5, size: 0x8, addend: 0x0, symName: __ZNSt3__16vectorI8SamEntryNS_9allocatorIS1_EEE22__base_destruct_at_endB8ue170006EPS1_, symObjAddr: 0x4B80, symBinAddr: 0x100005EA0, symSize: 0x8C }
  - { offsetInCU: 0x1D809, offset: 0x1D809, size: 0x8, addend: 0x0, symName: __ZNSt3__116allocator_traitsINS_9allocatorI8SamEntryEEE7destroyB8ue170006IS2_vEEvRS3_PT_, symObjAddr: 0x4C0C, symBinAddr: 0x100005F2C, symSize: 0x2C }
  - { offsetInCU: 0x1D846, offset: 0x1D846, size: 0x8, addend: 0x0, symName: __ZNSt3__19allocatorI8SamEntryE7destroyB8ue170006EPS1_, symObjAddr: 0x4C4C, symBinAddr: 0x100005F6C, symSize: 0x28 }
  - { offsetInCU: 0x1D87A, offset: 0x1D87A, size: 0x8, addend: 0x0, symName: __ZNKSt3__16vectorI8SamEntryNS_9allocatorIS1_EEE31__annotate_contiguous_containerB8ue170006EPKvS6_S6_S6_, symObjAddr: 0x4C74, symBinAddr: 0x100005F94, symSize: 0x20 }
  - { offsetInCU: 0x1D8CC, offset: 0x1D8CC, size: 0x8, addend: 0x0, symName: __ZNKSt3__16vectorI8SamEntryNS_9allocatorIS1_EEE4dataB8ue170006Ev, symObjAddr: 0x4C94, symBinAddr: 0x100005FB4, symSize: 0x28 }
  - { offsetInCU: 0x1D8F2, offset: 0x1D8F2, size: 0x8, addend: 0x0, symName: __ZNKSt3__16vectorI8SamEntryNS_9allocatorIS1_EEE4sizeB8ue170006Ev, symObjAddr: 0x4CBC, symBinAddr: 0x100005FDC, symSize: 0x28 }
  - { offsetInCU: 0x1D918, offset: 0x1D918, size: 0x8, addend: 0x0, symName: __ZNSt3__19allocatorI8SamEntryE10deallocateB8ue170006EPS1_m, symObjAddr: 0x4CE4, symBinAddr: 0x100006004, symSize: 0x44 }
  - { offsetInCU: 0x1D95A, offset: 0x1D95A, size: 0x8, addend: 0x0, symName: __ZNSt3__117__compressed_pairIP8SamEntryNS_9allocatorIS1_EEE6secondB8ue170006Ev, symObjAddr: 0x4DA4, symBinAddr: 0x1000060C4, symSize: 0x24 }
  - { offsetInCU: 0x1D980, offset: 0x1D980, size: 0x8, addend: 0x0, symName: __ZNSt3__122__compressed_pair_elemINS_9allocatorI8SamEntryEELi1ELb1EE5__getB8ue170006Ev, symObjAddr: 0x4DC8, symBinAddr: 0x1000060E8, symSize: 0x14 }
  - { offsetInCU: 0x1D9A6, offset: 0x1D9A6, size: 0x8, addend: 0x0, symName: __ZNKSt3__16vectorI8SamEntryNS_9allocatorIS1_EEE9__end_capB8ue170006Ev, symObjAddr: 0x4DDC, symBinAddr: 0x1000060FC, symSize: 0x28 }
  - { offsetInCU: 0x1D9CC, offset: 0x1D9CC, size: 0x8, addend: 0x0, symName: __ZNKSt3__117__compressed_pairIP8SamEntryNS_9allocatorIS1_EEE5firstB8ue170006Ev, symObjAddr: 0x4E04, symBinAddr: 0x100006124, symSize: 0x24 }
  - { offsetInCU: 0x1D9F2, offset: 0x1D9F2, size: 0x8, addend: 0x0, symName: __ZNKSt3__122__compressed_pair_elemIP8SamEntryLi0ELb0EE5__getB8ue170006Ev, symObjAddr: 0x4E28, symBinAddr: 0x100006148, symSize: 0x14 }
  - { offsetInCU: 0x1DA18, offset: 0x1DA18, size: 0x8, addend: 0x0, symName: __ZNSt3__19basic_iosIcNS_11char_traitsIcEEEC2B8ue170006Ev, symObjAddr: 0x4E3C, symBinAddr: 0x10000615C, symSize: 0x44 }
  - { offsetInCU: 0x1DA42, offset: 0x1DA42, size: 0x8, addend: 0x0, symName: __ZNSt3__113basic_istreamIcNS_11char_traitsIcEEEC2B8ue170006EPNS_15basic_streambufIcS2_EE, symObjAddr: 0x4E80, symBinAddr: 0x1000061A0, symSize: 0x64 }
  - { offsetInCU: 0x1DA87, offset: 0x1DA87, size: 0x8, addend: 0x0, symName: __ZNSt3__113basic_filebufIcNS_11char_traitsIcEEE4openERKNS_12basic_stringIcS2_NS_9allocatorIcEEEEj, symObjAddr: 0x4EE4, symBinAddr: 0x100006204, symSize: 0x44 }
  - { offsetInCU: 0x1DACB, offset: 0x1DACB, size: 0x8, addend: 0x0, symName: __ZNSt3__19basic_iosIcNS_11char_traitsIcEEE8setstateB8ue170006Ej, symObjAddr: 0x4F28, symBinAddr: 0x100006248, symSize: 0x2C }
  - { offsetInCU: 0x1DB00, offset: 0x1DB00, size: 0x8, addend: 0x0, symName: __ZNSt3__18ios_baseC2B8ue170006Ev, symObjAddr: 0x4F54, symBinAddr: 0x100006274, symSize: 0x24 }
  - { offsetInCU: 0x1DB2A, offset: 0x1DB2A, size: 0x8, addend: 0x0, symName: __ZNSt3__19basic_iosIcNS_11char_traitsIcEEE4initB8ue170006EPNS_15basic_streambufIcS2_EE, symObjAddr: 0x4F78, symBinAddr: 0x100006298, symSize: 0x44 }
  - { offsetInCU: 0x1DB61, offset: 0x1DB61, size: 0x8, addend: 0x0, symName: __ZNSt3__111char_traitsIcE3eofB8ue170006Ev, symObjAddr: 0x4FBC, symBinAddr: 0x1000062DC, symSize: 0x8 }
  - { offsetInCU: 0x1DB75, offset: 0x1DB75, size: 0x8, addend: 0x0, symName: __ZNKSt3__112basic_stringIcNS_11char_traitsIcEENS_9allocatorIcEEE5c_strB8ue170006Ev, symObjAddr: 0x4FC4, symBinAddr: 0x1000062E4, symSize: 0x24 }
  - { offsetInCU: 0x1DB9B, offset: 0x1DB9B, size: 0x8, addend: 0x0, symName: __ZNSt3__18ios_base8setstateB8ue170006Ej, symObjAddr: 0x4FE8, symBinAddr: 0x100006308, symSize: 0x34 }
  - { offsetInCU: 0x1DBD2, offset: 0x1DBD2, size: 0x8, addend: 0x0, symName: __ZNKSt3__19basic_iosIcNS_11char_traitsIcEEE4failB8ue170006Ev, symObjAddr: 0x501C, symBinAddr: 0x10000633C, symSize: 0x28 }
  - { offsetInCU: 0x1DBF8, offset: 0x1DBF8, size: 0x8, addend: 0x0, symName: __ZNKSt3__18ios_base4failB8ue170006Ev, symObjAddr: 0x5044, symBinAddr: 0x100006364, symSize: 0x28 }
  - { offsetInCU: 0x1DC20, offset: 0x1DC20, size: 0x8, addend: 0x0, symName: __ZNSt3__111char_traitsIcE6lengthB8ue170006EPKc, symObjAddr: 0x5258, symBinAddr: 0x100006578, symSize: 0x34 }
  - { offsetInCU: 0x1DC64, offset: 0x1DC64, size: 0x8, addend: 0x0, symName: __ZNKSt3__113basic_ostreamIcNS_11char_traitsIcEEE6sentrycvbB8ue170006Ev, symObjAddr: 0x528C, symBinAddr: 0x1000065AC, symSize: 0x1C }
  - { offsetInCU: 0x1DC8A, offset: 0x1DC8A, size: 0x8, addend: 0x0, symName: __ZNSt3__119ostreambuf_iteratorIcNS_11char_traitsIcEEEC1B8ue170006ERNS_13basic_ostreamIcS2_EE, symObjAddr: 0x54E8, symBinAddr: 0x100006808, symSize: 0x34 }
  - { offsetInCU: 0x1DCC2, offset: 0x1DCC2, size: 0x8, addend: 0x0, symName: __ZNKSt3__18ios_base5flagsB8ue170006Ev, symObjAddr: 0x551C, symBinAddr: 0x10000683C, symSize: 0x18 }
  - { offsetInCU: 0x1DCEA, offset: 0x1DCEA, size: 0x8, addend: 0x0, symName: __ZNKSt3__19basic_iosIcNS_11char_traitsIcEEE4fillB8ue170006Ev, symObjAddr: 0x5534, symBinAddr: 0x100006854, symSize: 0x64 }
  - { offsetInCU: 0x1DD12, offset: 0x1DD12, size: 0x8, addend: 0x0, symName: __ZNKSt3__119ostreambuf_iteratorIcNS_11char_traitsIcEEE6failedB8ue170006Ev, symObjAddr: 0x5598, symBinAddr: 0x1000068B8, symSize: 0x24 }
  - { offsetInCU: 0x1DD38, offset: 0x1DD38, size: 0x8, addend: 0x0, symName: __ZNKSt3__18ios_base5widthB8ue170006Ev, symObjAddr: 0x55BC, symBinAddr: 0x1000068DC, symSize: 0x18 }
  - { offsetInCU: 0x1DD60, offset: 0x1DD60, size: 0x8, addend: 0x0, symName: __ZNSt3__115basic_streambufIcNS_11char_traitsIcEEE5sputnB8ue170006EPKcl, symObjAddr: 0x55D4, symBinAddr: 0x1000068F4, symSize: 0x3C }
  - { offsetInCU: 0x1DDA2, offset: 0x1DDA2, size: 0x8, addend: 0x0, symName: __ZNSt3__112basic_stringIcNS_11char_traitsIcEENS_9allocatorIcEEEC1B8ue170006Emc, symObjAddr: 0x5610, symBinAddr: 0x100006930, symSize: 0x3C }
  - { offsetInCU: 0x1DDEA, offset: 0x1DDEA, size: 0x8, addend: 0x0, symName: __ZNSt3__18ios_base5widthB8ue170006El, symObjAddr: 0x564C, symBinAddr: 0x10000696C, symSize: 0x2C }
  - { offsetInCU: 0x1DE30, offset: 0x1DE30, size: 0x8, addend: 0x0, symName: __ZNSt3__112basic_stringIcNS_11char_traitsIcEENS_9allocatorIcEEEC2B8ue170006Emc, symObjAddr: 0x5678, symBinAddr: 0x100006998, symSize: 0x4C }
  - { offsetInCU: 0x1DE78, offset: 0x1DE78, size: 0x8, addend: 0x0, symName: __ZNSt3__119ostreambuf_iteratorIcNS_11char_traitsIcEEEC2B8ue170006ERNS_13basic_ostreamIcS2_EE, symObjAddr: 0x56C4, symBinAddr: 0x1000069E4, symSize: 0x54 }
  - { offsetInCU: 0x1DEB0, offset: 0x1DEB0, size: 0x8, addend: 0x0, symName: __ZNKSt3__19basic_iosIcNS_11char_traitsIcEEE5rdbufB8ue170006Ev, symObjAddr: 0x5718, symBinAddr: 0x100006A38, symSize: 0x24 }
  - { offsetInCU: 0x1DED8, offset: 0x1DED8, size: 0x8, addend: 0x0, symName: __ZNKSt3__18ios_base5rdbufB8ue170006Ev, symObjAddr: 0x573C, symBinAddr: 0x100006A5C, symSize: 0x18 }
  - { offsetInCU: 0x1DEFE, offset: 0x1DEFE, size: 0x8, addend: 0x0, symName: __ZNSt3__111char_traitsIcE11eq_int_typeB8ue170006Eii, symObjAddr: 0x5754, symBinAddr: 0x100006A74, symSize: 0x28 }
  - { offsetInCU: 0x1DF31, offset: 0x1DF31, size: 0x8, addend: 0x0, symName: __ZNKSt3__19basic_iosIcNS_11char_traitsIcEEE5widenB8ue170006Ec, symObjAddr: 0x577C, symBinAddr: 0x100006A9C, symSize: 0x84 }
  - { offsetInCU: 0x1DF95, offset: 0x1DF95, size: 0x8, addend: 0x0, symName: __ZNKSt3__15ctypeIcE5widenB8ue170006Ec, symObjAddr: 0x582C, symBinAddr: 0x100006B4C, symSize: 0x38 }
  - { offsetInCU: 0x1DFEB, offset: 0x1DFEB, size: 0x8, addend: 0x0, symName: __ZNKSt3__113basic_istreamIcNS_11char_traitsIcEEE6sentrycvbB8ue170006Ev, symObjAddr: 0x5AC0, symBinAddr: 0x100006DE0, symSize: 0x1C }
  - { offsetInCU: 0x1E011, offset: 0x1E011, size: 0x8, addend: 0x0, symName: __ZNSt3__112basic_stringIcNS_11char_traitsIcEENS_9allocatorIcEEE5clearB8ue170006Ev, symObjAddr: 0x5ADC, symBinAddr: 0x100006DFC, symSize: 0x78 }
  - { offsetInCU: 0x1E039, offset: 0x1E039, size: 0x8, addend: 0x0, symName: __ZNSt3__115basic_streambufIcNS_11char_traitsIcEEE6sbumpcB8ue170006Ev, symObjAddr: 0x5B54, symBinAddr: 0x100006E74, symSize: 0x78 }
  - { offsetInCU: 0x1E05F, offset: 0x1E05F, size: 0x8, addend: 0x0, symName: __ZNSt3__111char_traitsIcE12to_char_typeB8ue170006Ei, symObjAddr: 0x5BCC, symBinAddr: 0x100006EEC, symSize: 0x18 }
  - { offsetInCU: 0x1E082, offset: 0x1E082, size: 0x8, addend: 0x0, symName: __ZNSt3__111char_traitsIcE2eqEcc, symObjAddr: 0x5BE4, symBinAddr: 0x100006F04, symSize: 0x28 }
  - { offsetInCU: 0x1E0B3, offset: 0x1E0B3, size: 0x8, addend: 0x0, symName: __ZNKSt3__112basic_stringIcNS_11char_traitsIcEENS_9allocatorIcEEE8max_sizeB8ue170006Ev, symObjAddr: 0x5C0C, symBinAddr: 0x100006F2C, symSize: 0xAC }
  - { offsetInCU: 0x1E105, offset: 0x1E105, size: 0x8, addend: 0x0, symName: __ZNSt3__18ios_base18__setstate_nothrowB8ue170006Ej, symObjAddr: 0x5CB8, symBinAddr: 0x100006FD8, symSize: 0x64 }
  - { offsetInCU: 0x1E13A, offset: 0x1E13A, size: 0x8, addend: 0x0, symName: __ZNKSt3__19basic_iosIcNS_11char_traitsIcEEE10exceptionsB8ue170006Ev, symObjAddr: 0x5D1C, symBinAddr: 0x10000703C, symSize: 0x24 }
  - { offsetInCU: 0x1E160, offset: 0x1E160, size: 0x8, addend: 0x0, symName: __ZNSt3__111char_traitsIcE6assignB8ue170006ERcRKc, symObjAddr: 0x5D40, symBinAddr: 0x100007060, symSize: 0x24 }
  - { offsetInCU: 0x1E191, offset: 0x1E191, size: 0x8, addend: 0x0, symName: __ZNSt3__112basic_stringIcNS_11char_traitsIcEENS_9allocatorIcEEE18__get_long_pointerB8ue170006Ev, symObjAddr: 0x5D64, symBinAddr: 0x100007084, symSize: 0x28 }
  - { offsetInCU: 0x1E1B7, offset: 0x1E1B7, size: 0x8, addend: 0x0, symName: __ZNSt3__112basic_stringIcNS_11char_traitsIcEENS_9allocatorIcEEE15__set_long_sizeB8ue170006Em, symObjAddr: 0x5D8C, symBinAddr: 0x1000070AC, symSize: 0x38 }
  - { offsetInCU: 0x1E1EC, offset: 0x1E1EC, size: 0x8, addend: 0x0, symName: __ZNSt3__112basic_stringIcNS_11char_traitsIcEENS_9allocatorIcEEE19__get_short_pointerB8ue170006Ev, symObjAddr: 0x5DC4, symBinAddr: 0x1000070E4, symSize: 0x28 }
  - { offsetInCU: 0x1E212, offset: 0x1E212, size: 0x8, addend: 0x0, symName: __ZNSt3__112basic_stringIcNS_11char_traitsIcEENS_9allocatorIcEEE16__set_short_sizeB8ue170006Em, symObjAddr: 0x5DEC, symBinAddr: 0x10000710C, symSize: 0x78 }
  - { offsetInCU: 0x1E247, offset: 0x1E247, size: 0x8, addend: 0x0, symName: __ZNSt3__114pointer_traitsIPcE10pointer_toB8ue170006ERc, symObjAddr: 0x5E64, symBinAddr: 0x100007184, symSize: 0x14 }
  - { offsetInCU: 0x1E26A, offset: 0x1E26A, size: 0x8, addend: 0x0, symName: __ZNSt3__111char_traitsIcE11to_int_typeB8ue170006Ec, symObjAddr: 0x5E78, symBinAddr: 0x100007198, symSize: 0x14 }
  - { offsetInCU: 0x1E299, offset: 0x1E299, size: 0x8, addend: 0x0, symName: __ZNSt3__116allocator_traitsINS_9allocatorIcEEE8max_sizeB8ue170006IS2_vEEmRKS2_, symObjAddr: 0x5E8C, symBinAddr: 0x1000071AC, symSize: 0x24 }
  - { offsetInCU: 0x1E2C7, offset: 0x1E2C7, size: 0x8, addend: 0x0, symName: __ZNKSt3__112basic_stringIcNS_11char_traitsIcEENS_9allocatorIcEEE7__allocB8ue170006Ev, symObjAddr: 0x5EB0, symBinAddr: 0x1000071D0, symSize: 0x24 }
  - { offsetInCU: 0x1E2ED, offset: 0x1E2ED, size: 0x8, addend: 0x0, symName: __ZNSt3__114numeric_limitsImE3maxB8ue170006Ev, symObjAddr: 0x5ED4, symBinAddr: 0x1000071F4, symSize: 0x14 }
  - { offsetInCU: 0x1E301, offset: 0x1E301, size: 0x8, addend: 0x0, symName: __ZNKSt3__19allocatorIcE8max_sizeB8ue170006Ev, symObjAddr: 0x5EE8, symBinAddr: 0x100007208, symSize: 0x14 }
  - { offsetInCU: 0x1E327, offset: 0x1E327, size: 0x8, addend: 0x0, symName: __ZNKSt3__117__compressed_pairINS_12basic_stringIcNS_11char_traitsIcEENS_9allocatorIcEEE5__repES5_E6secondB8ue170006Ev, symObjAddr: 0x5EFC, symBinAddr: 0x10000721C, symSize: 0x24 }
  - { offsetInCU: 0x1E34D, offset: 0x1E34D, size: 0x8, addend: 0x0, symName: __ZNKSt3__122__compressed_pair_elemINS_9allocatorIcEELi1ELb1EE5__getB8ue170006Ev, symObjAddr: 0x5F20, symBinAddr: 0x100007240, symSize: 0x14 }
  - { offsetInCU: 0x1E373, offset: 0x1E373, size: 0x8, addend: 0x0, symName: __ZNSt3__123__libcpp_numeric_limitsImLb1EE3maxB8ue170006Ev, symObjAddr: 0x5F34, symBinAddr: 0x100007254, symSize: 0x8 }
  - { offsetInCU: 0x1E387, offset: 0x1E387, size: 0x8, addend: 0x0, symName: __ZNKSt3__18ios_base10exceptionsB8ue170006Ev, symObjAddr: 0x5F3C, symBinAddr: 0x10000725C, symSize: 0x18 }
  - { offsetInCU: 0x1E3AF, offset: 0x1E3AF, size: 0x8, addend: 0x0, symName: __ZNSt3__112basic_stringIcNS_11char_traitsIcEENS_9allocatorIcEEE13__get_pointerB8ue170006Ev, symObjAddr: 0x5F54, symBinAddr: 0x100007274, symSize: 0x54 }
  - { offsetInCU: 0x1E3D5, offset: 0x1E3D5, size: 0x8, addend: 0x0, symName: __ZNSt3__115basic_stringbufIcNS_11char_traitsIcEENS_9allocatorIcEEEC1B8ue170006ERKNS_12basic_stringIcS2_S4_EEj, symObjAddr: 0x5FA8, symBinAddr: 0x1000072C8, symSize: 0x3C }
  - { offsetInCU: 0x1E41D, offset: 0x1E41D, size: 0x8, addend: 0x0, symName: __ZNSt3__115basic_stringbufIcNS_11char_traitsIcEENS_9allocatorIcEEEC2B8ue170006ERKNS_12basic_stringIcS2_S4_EEj, symObjAddr: 0x5FE4, symBinAddr: 0x100007304, symSize: 0xB4 }
  - { offsetInCU: 0x1E465, offset: 0x1E465, size: 0x8, addend: 0x0, symName: __ZNKSt3__112basic_stringIcNS_11char_traitsIcEENS_9allocatorIcEEE13get_allocatorB8ue170006Ev, symObjAddr: 0x6098, symBinAddr: 0x1000073B8, symSize: 0x24 }
  - { offsetInCU: 0x1E48B, offset: 0x1E48B, size: 0x8, addend: 0x0, symName: __ZNSt3__112basic_stringIcNS_11char_traitsIcEENS_9allocatorIcEEEC1B8ue170006ERKS4_, symObjAddr: 0x60BC, symBinAddr: 0x1000073DC, symSize: 0x34 }
  - { offsetInCU: 0x1E4C4, offset: 0x1E4C4, size: 0x8, addend: 0x0, symName: __ZNSt3__112basic_stringIcNS_11char_traitsIcEENS_9allocatorIcEEEC2B8ue170006ERKS4_, symObjAddr: 0x60F0, symBinAddr: 0x100007410, symSize: 0x48 }
  - { offsetInCU: 0x1E4FD, offset: 0x1E4FD, size: 0x8, addend: 0x0, symName: __ZNSt3__117__compressed_pairINS_12basic_stringIcNS_11char_traitsIcEENS_9allocatorIcEEE5__repES5_EC1B8ue170006INS_18__default_init_tagERKS5_EEOT_OT0_, symObjAddr: 0x6138, symBinAddr: 0x100007458, symSize: 0x3C }
  - { offsetInCU: 0x1E555, offset: 0x1E555, size: 0x8, addend: 0x0, symName: __ZNSt3__117__compressed_pairINS_12basic_stringIcNS_11char_traitsIcEENS_9allocatorIcEEE5__repES5_EC2B8ue170006INS_18__default_init_tagERKS5_EEOT_OT0_, symObjAddr: 0x6174, symBinAddr: 0x100007494, symSize: 0x40 }
  - { offsetInCU: 0x1E5AD, offset: 0x1E5AD, size: 0x8, addend: 0x0, symName: __ZNSt3__122__compressed_pair_elemINS_9allocatorIcEELi1ELb1EEC2B8ue170006IRKS2_vEEOT_, symObjAddr: 0x61B4, symBinAddr: 0x1000074D4, symSize: 0x18 }
  - { offsetInCU: 0x1E5EF, offset: 0x1E5EF, size: 0x8, addend: 0x0, symName: __ZNSt3__114numeric_limitsIlE3maxB8ue170006Ev, symObjAddr: 0x61CC, symBinAddr: 0x1000074EC, symSize: 0x14 }
  - { offsetInCU: 0x1E603, offset: 0x1E603, size: 0x8, addend: 0x0, symName: __ZNSt3__115basic_streambufIcNS_11char_traitsIcEEE5sgetcB8ue170006Ev, symObjAddr: 0x61E0, symBinAddr: 0x100007500, symSize: 0x70 }
  - { offsetInCU: 0x1E629, offset: 0x1E629, size: 0x8, addend: 0x0, symName: __ZNKSt3__15ctypeIcE2isB8ue170006Ejc, symObjAddr: 0x6250, symBinAddr: 0x100007570, symSize: 0x7C }
  - { offsetInCU: 0x1E66D, offset: 0x1E66D, size: 0x8, addend: 0x0, symName: __ZNSt3__123__libcpp_numeric_limitsIlLb1EE3maxB8ue170006Ev, symObjAddr: 0x62CC, symBinAddr: 0x1000075EC, symSize: 0x8 }
  - { offsetInCU: 0x1E680, offset: 0x1E680, size: 0x8, addend: 0x0, symName: __Z7isasciii, symObjAddr: 0x62D4, symBinAddr: 0x1000075F4, symSize: 0x24 }
  - { offsetInCU: 0x1E6AD, offset: 0x1E6AD, size: 0x8, addend: 0x0, symName: __ZNSt3__16vectorI8SamEntryNS_9allocatorIS1_EEE9__end_capB8ue170006Ev, symObjAddr: 0x62F8, symBinAddr: 0x100007618, symSize: 0x28 }
  - { offsetInCU: 0x1E6D3, offset: 0x1E6D3, size: 0x8, addend: 0x0, symName: __ZNSt3__16vectorI8SamEntryNS_9allocatorIS1_EEE22__construct_one_at_endB8ue170006IJRKS1_EEEvDpOT_, symObjAddr: 0x6320, symBinAddr: 0x100007640, symSize: 0x90 }
  - { offsetInCU: 0x1E722, offset: 0x1E722, size: 0x8, addend: 0x0, symName: __ZNSt3__16vectorI8SamEntryNS_9allocatorIS1_EEE21__push_back_slow_pathIRKS1_EEvOT_, symObjAddr: 0x63B0, symBinAddr: 0x1000076D0, symSize: 0xD8 }
  - { offsetInCU: 0x1E780, offset: 0x1E780, size: 0x8, addend: 0x0, symName: __ZNSt3__117__compressed_pairIP8SamEntryNS_9allocatorIS1_EEE5firstB8ue170006Ev, symObjAddr: 0x6488, symBinAddr: 0x1000077A8, symSize: 0x24 }
  - { offsetInCU: 0x1E7A6, offset: 0x1E7A6, size: 0x8, addend: 0x0, symName: __ZNSt3__122__compressed_pair_elemIP8SamEntryLi0ELb0EE5__getB8ue170006Ev, symObjAddr: 0x64AC, symBinAddr: 0x1000077CC, symSize: 0x14 }
  - { offsetInCU: 0x1E7E7, offset: 0x1E7E7, size: 0x8, addend: 0x0, symName: __ZNSt3__16vectorI8SamEntryNS_9allocatorIS1_EEE21_ConstructTransactionC1B8ue170006ERS4_m, symObjAddr: 0x64C0, symBinAddr: 0x1000077E0, symSize: 0x3C }
  - { offsetInCU: 0x1E82F, offset: 0x1E82F, size: 0x8, addend: 0x0, symName: __ZNSt3__116allocator_traitsINS_9allocatorI8SamEntryEEE9constructB8ue170006IS2_JRKS2_EvEEvRS3_PT_DpOT0_, symObjAddr: 0x64FC, symBinAddr: 0x10000781C, symSize: 0x34 }
  - { offsetInCU: 0x1E886, offset: 0x1E886, size: 0x8, addend: 0x0, symName: __ZNSt3__16vectorI8SamEntryNS_9allocatorIS1_EEE21_ConstructTransactionD1B8ue170006Ev, symObjAddr: 0x6530, symBinAddr: 0x100007850, symSize: 0x2C }
  - { offsetInCU: 0x1E8B0, offset: 0x1E8B0, size: 0x8, addend: 0x0, symName: __ZNSt3__16vectorI8SamEntryNS_9allocatorIS1_EEE21_ConstructTransactionC2B8ue170006ERS4_m, symObjAddr: 0x655C, symBinAddr: 0x10000787C, symSize: 0x4C }
  - { offsetInCU: 0x1E8F8, offset: 0x1E8F8, size: 0x8, addend: 0x0, symName: __ZNSt3__19allocatorI8SamEntryE9constructB8ue170006IS1_JRKS1_EEEvPT_DpOT0_, symObjAddr: 0x65A8, symBinAddr: 0x1000078C8, symSize: 0x30 }
  - { offsetInCU: 0x1E94E, offset: 0x1E94E, size: 0x8, addend: 0x0, symName: __ZN8SamEntryC1ERKS_, symObjAddr: 0x65D8, symBinAddr: 0x1000078F8, symSize: 0x34 }
  - { offsetInCU: 0x1E983, offset: 0x1E983, size: 0x8, addend: 0x0, symName: __ZN8SamEntryC2ERKS_, symObjAddr: 0x660C, symBinAddr: 0x10000792C, symSize: 0x88 }
  - { offsetInCU: 0x1E9B8, offset: 0x1E9B8, size: 0x8, addend: 0x0, symName: __ZNSt3__16vectorI8SamEntryNS_9allocatorIS1_EEE21_ConstructTransactionD2B8ue170006Ev, symObjAddr: 0x6694, symBinAddr: 0x1000079B4, symSize: 0x20 }
  - { offsetInCU: 0x1E9E2, offset: 0x1E9E2, size: 0x8, addend: 0x0, symName: __ZNKSt3__16vectorI8SamEntryNS_9allocatorIS1_EEE11__recommendB8ue170006Em, symObjAddr: 0x66B4, symBinAddr: 0x1000079D4, symSize: 0xB4 }
  - { offsetInCU: 0x1EA37, offset: 0x1EA37, size: 0x8, addend: 0x0, symName: __ZNSt3__114__split_bufferI8SamEntryRNS_9allocatorIS1_EEEC1EmmS4_, symObjAddr: 0x6768, symBinAddr: 0x100007A88, symSize: 0x44 }
  - { offsetInCU: 0x1EA8D, offset: 0x1EA8D, size: 0x8, addend: 0x0, symName: __ZNSt3__114__split_bufferI8SamEntryRNS_9allocatorIS1_EEED1Ev, symObjAddr: 0x68BC, symBinAddr: 0x100007BDC, symSize: 0x2C }
  - { offsetInCU: 0x1EAB9, offset: 0x1EAB9, size: 0x8, addend: 0x0, symName: __ZNKSt3__16vectorI8SamEntryNS_9allocatorIS1_EEE8max_sizeEv, symObjAddr: 0x68E8, symBinAddr: 0x100007C08, symSize: 0x60 }
  - { offsetInCU: 0x1EAE1, offset: 0x1EAE1, size: 0x8, addend: 0x0, symName: __ZNKSt3__16vectorI8SamEntryNS_9allocatorIS1_EEE20__throw_length_errorB8ue170006Ev, symObjAddr: 0x6948, symBinAddr: 0x100007C68, symSize: 0x1C }
  - { offsetInCU: 0x1EB12, offset: 0x1EB12, size: 0x8, addend: 0x0, symName: __ZNSt3__116allocator_traitsINS_9allocatorI8SamEntryEEE8max_sizeB8ue170006IS3_vEEmRKS3_, symObjAddr: 0x69BC, symBinAddr: 0x100007CDC, symSize: 0x24 }
  - { offsetInCU: 0x1EB40, offset: 0x1EB40, size: 0x8, addend: 0x0, symName: __ZNKSt3__16vectorI8SamEntryNS_9allocatorIS1_EEE7__allocB8ue170006Ev, symObjAddr: 0x69E0, symBinAddr: 0x100007D00, symSize: 0x28 }
  - { offsetInCU: 0x1EB70, offset: 0x1EB70, size: 0x8, addend: 0x0, symName: __ZNKSt3__16__lessIvvEclB8ue170006ImmEEbRKT_RKT0_, symObjAddr: 0x6A5C, symBinAddr: 0x100007D7C, symSize: 0x34 }
  - { offsetInCU: 0x1EBC4, offset: 0x1EBC4, size: 0x8, addend: 0x0, symName: __ZNKSt3__19allocatorI8SamEntryE8max_sizeB8ue170006Ev, symObjAddr: 0x6A90, symBinAddr: 0x100007DB0, symSize: 0x20 }
  - { offsetInCU: 0x1EBEA, offset: 0x1EBEA, size: 0x8, addend: 0x0, symName: __ZNKSt3__117__compressed_pairIP8SamEntryNS_9allocatorIS1_EEE6secondB8ue170006Ev, symObjAddr: 0x6AB0, symBinAddr: 0x100007DD0, symSize: 0x24 }
  - { offsetInCU: 0x1EC10, offset: 0x1EC10, size: 0x8, addend: 0x0, symName: __ZNKSt3__122__compressed_pair_elemINS_9allocatorI8SamEntryEELi1ELb1EE5__getB8ue170006Ev, symObjAddr: 0x6AD4, symBinAddr: 0x100007DF4, symSize: 0x14 }
  - { offsetInCU: 0x1EC36, offset: 0x1EC36, size: 0x8, addend: 0x0, symName: __ZNSt12length_errorC1B8ue170006EPKc, symObjAddr: 0x6B4C, symBinAddr: 0x100007E6C, symSize: 0x34 }
  - { offsetInCU: 0x1EC6E, offset: 0x1EC6E, size: 0x8, addend: 0x0, symName: __ZNSt12length_errorC2B8ue170006EPKc, symObjAddr: 0x6B80, symBinAddr: 0x100007EA0, symSize: 0x4C }
  - { offsetInCU: 0x1ECA6, offset: 0x1ECA6, size: 0x8, addend: 0x0, symName: __ZNSt3__114__split_bufferI8SamEntryRNS_9allocatorIS1_EEEC2EmmS4_, symObjAddr: 0x6C20, symBinAddr: 0x100007F40, symSize: 0xE0 }
  - { offsetInCU: 0x1ED19, offset: 0x1ED19, size: 0x8, addend: 0x0, symName: __ZNSt3__117__compressed_pairIP8SamEntryRNS_9allocatorIS1_EEEC1B8ue170006IDnS5_EEOT_OT0_, symObjAddr: 0x6D00, symBinAddr: 0x100008020, symSize: 0x3C }
  - { offsetInCU: 0x1ED71, offset: 0x1ED71, size: 0x8, addend: 0x0, symName: __ZNSt3__114__split_bufferI8SamEntryRNS_9allocatorIS1_EEE7__allocB8ue170006Ev, symObjAddr: 0x6D7C, symBinAddr: 0x10000809C, symSize: 0x28 }
  - { offsetInCU: 0x1ED97, offset: 0x1ED97, size: 0x8, addend: 0x0, symName: __ZNSt3__114__split_bufferI8SamEntryRNS_9allocatorIS1_EEE9__end_capB8ue170006Ev, symObjAddr: 0x6DA4, symBinAddr: 0x1000080C4, symSize: 0x28 }
  - { offsetInCU: 0x1EDBD, offset: 0x1EDBD, size: 0x8, addend: 0x0, symName: __ZNSt3__117__compressed_pairIP8SamEntryRNS_9allocatorIS1_EEEC2B8ue170006IDnS5_EEOT_OT0_, symObjAddr: 0x6DCC, symBinAddr: 0x1000080EC, symSize: 0x48 }
  - { offsetInCU: 0x1EE15, offset: 0x1EE15, size: 0x8, addend: 0x0, symName: __ZNSt3__122__compressed_pair_elemIRNS_9allocatorI8SamEntryEELi1ELb0EEC2B8ue170006IS4_vEEOT_, symObjAddr: 0x6E14, symBinAddr: 0x100008134, symSize: 0x20 }
  - { offsetInCU: 0x1EE57, offset: 0x1EE57, size: 0x8, addend: 0x0, symName: __ZNSt3__19allocatorI8SamEntryE8allocateB8ue170006Em, symObjAddr: 0x6E34, symBinAddr: 0x100008154, symSize: 0x5C }
  - { offsetInCU: 0x1EE8B, offset: 0x1EE8B, size: 0x8, addend: 0x0, symName: __ZNSt3__117__compressed_pairIP8SamEntryRNS_9allocatorIS1_EEE6secondB8ue170006Ev, symObjAddr: 0x6F10, symBinAddr: 0x100008230, symSize: 0x28 }
  - { offsetInCU: 0x1EEB1, offset: 0x1EEB1, size: 0x8, addend: 0x0, symName: __ZNSt3__122__compressed_pair_elemIRNS_9allocatorI8SamEntryEELi1ELb0EE5__getB8ue170006Ev, symObjAddr: 0x6F38, symBinAddr: 0x100008258, symSize: 0x18 }
  - { offsetInCU: 0x1EED7, offset: 0x1EED7, size: 0x8, addend: 0x0, symName: __ZNSt3__117__compressed_pairIP8SamEntryRNS_9allocatorIS1_EEE5firstB8ue170006Ev, symObjAddr: 0x6F50, symBinAddr: 0x100008270, symSize: 0x24 }
  - { offsetInCU: 0x1EEFD, offset: 0x1EEFD, size: 0x8, addend: 0x0, symName: __ZNSt3__116reverse_iteratorIP8SamEntryEC1B8ue170006ES2_, symObjAddr: 0x70A0, symBinAddr: 0x1000083C0, symSize: 0x34 }
  - { offsetInCU: 0x1EF35, offset: 0x1EF35, size: 0x8, addend: 0x0, symName: __ZNKSt3__116reverse_iteratorIP8SamEntryE4baseB8ue170006Ev, symObjAddr: 0x70D4, symBinAddr: 0x1000083F4, symSize: 0x18 }
  - { offsetInCU: 0x1EF5B, offset: 0x1EF5B, size: 0x8, addend: 0x0, symName: __ZNKSt3__16vectorI8SamEntryNS_9allocatorIS1_EEE14__annotate_newB8ue170006Em, symObjAddr: 0x7128, symBinAddr: 0x100008448, symSize: 0xC8 }
  - { offsetInCU: 0x1EF90, offset: 0x1EF90, size: 0x8, addend: 0x0, symName: __ZNSt3__129_AllocatorDestroyRangeReverseINS_9allocatorI8SamEntryEENS_16reverse_iteratorIPS2_EEEC1B8ue170006ERS3_RS6_S9_, symObjAddr: 0x723C, symBinAddr: 0x10000855C, symSize: 0x44 }
  - { offsetInCU: 0x1EFED, offset: 0x1EFED, size: 0x8, addend: 0x0, symName: __ZNSt3__116allocator_traitsINS_9allocatorI8SamEntryEEE9constructB8ue170006IS2_JS2_EvEEvRS3_PT_DpOT0_, symObjAddr: 0x72C8, symBinAddr: 0x1000085E8, symSize: 0x34 }
  - { offsetInCU: 0x1F044, offset: 0x1F044, size: 0x8, addend: 0x0, symName: __ZNKSt3__116reverse_iteratorIP8SamEntryEdeB8ue170006Ev, symObjAddr: 0x7320, symBinAddr: 0x100008640, symSize: 0x28 }
  - { offsetInCU: 0x1F078, offset: 0x1F078, size: 0x8, addend: 0x0, symName: __ZNSt3__116reverse_iteratorIP8SamEntryEppB8ue170006Ev, symObjAddr: 0x7348, symBinAddr: 0x100008668, symSize: 0x20 }
  - { offsetInCU: 0x1F09E, offset: 0x1F09E, size: 0x8, addend: 0x0, symName: __ZNSt3__128__exception_guard_exceptionsINS_29_AllocatorDestroyRangeReverseINS_9allocatorI8SamEntryEENS_16reverse_iteratorIPS3_EEEEE10__completeB8ue170006Ev, symObjAddr: 0x7368, symBinAddr: 0x100008688, symSize: 0x1C }
  - { offsetInCU: 0x1F0C4, offset: 0x1F0C4, size: 0x8, addend: 0x0, symName: __ZNSt3__128__exception_guard_exceptionsINS_29_AllocatorDestroyRangeReverseINS_9allocatorI8SamEntryEENS_16reverse_iteratorIPS3_EEEEED1B8ue170006Ev, symObjAddr: 0x7384, symBinAddr: 0x1000086A4, symSize: 0x2C }
  - { offsetInCU: 0x1F0EE, offset: 0x1F0EE, size: 0x8, addend: 0x0, symName: __ZNSt3__128__exception_guard_exceptionsINS_29_AllocatorDestroyRangeReverseINS_9allocatorI8SamEntryEENS_16reverse_iteratorIPS3_EEEEEC1B8ue170006ES8_, symObjAddr: 0x73B0, symBinAddr: 0x1000086D0, symSize: 0x34 }
  - { offsetInCU: 0x1F127, offset: 0x1F127, size: 0x8, addend: 0x0, symName: __ZNSt3__128__exception_guard_exceptionsINS_29_AllocatorDestroyRangeReverseINS_9allocatorI8SamEntryEENS_16reverse_iteratorIPS3_EEEEEC2B8ue170006ES8_, symObjAddr: 0x73E4, symBinAddr: 0x100008704, symSize: 0x30 }
  - { offsetInCU: 0x1F160, offset: 0x1F160, size: 0x8, addend: 0x0, symName: __ZNSt3__129_AllocatorDestroyRangeReverseINS_9allocatorI8SamEntryEENS_16reverse_iteratorIPS2_EEEC2B8ue170006ERS3_RS6_S9_, symObjAddr: 0x7414, symBinAddr: 0x100008734, symSize: 0x38 }
  - { offsetInCU: 0x1F1B7, offset: 0x1F1B7, size: 0x8, addend: 0x0, symName: __ZNSt3__19allocatorI8SamEntryE9constructB8ue170006IS1_JS1_EEEvPT_DpOT0_, symObjAddr: 0x744C, symBinAddr: 0x10000876C, symSize: 0x30 }
  - { offsetInCU: 0x1F20D, offset: 0x1F20D, size: 0x8, addend: 0x0, symName: __ZN8SamEntryC1EOS_, symObjAddr: 0x747C, symBinAddr: 0x10000879C, symSize: 0x34 }
  - { offsetInCU: 0x1F242, offset: 0x1F242, size: 0x8, addend: 0x0, symName: __ZN8SamEntryC2EOS_, symObjAddr: 0x74B0, symBinAddr: 0x1000087D0, symSize: 0x5C }
  - { offsetInCU: 0x1F277, offset: 0x1F277, size: 0x8, addend: 0x0, symName: __ZNSt3__112basic_stringIcNS_11char_traitsIcEENS_9allocatorIcEEEC1B8ue170006EOS5_, symObjAddr: 0x750C, symBinAddr: 0x10000882C, symSize: 0x34 }
  - { offsetInCU: 0x1F2B0, offset: 0x1F2B0, size: 0x8, addend: 0x0, symName: __ZNSt3__112basic_stringIcNS_11char_traitsIcEENS_9allocatorIcEEEC2B8ue170006EOS5_, symObjAddr: 0x7540, symBinAddr: 0x100008860, symSize: 0x48 }
  - { offsetInCU: 0x1F2EF, offset: 0x1F2EF, size: 0x8, addend: 0x0, symName: __ZNSt3__119__to_address_helperINS_16reverse_iteratorIP8SamEntryEEvE6__callB8ue170006ERKS4_, symObjAddr: 0x7588, symBinAddr: 0x1000088A8, symSize: 0x38 }
  - { offsetInCU: 0x1F312, offset: 0x1F312, size: 0x8, addend: 0x0, symName: __ZNKSt3__116reverse_iteratorIP8SamEntryEptB8ue170006Ev, symObjAddr: 0x75C0, symBinAddr: 0x1000088E0, symSize: 0x24 }
  - { offsetInCU: 0x1F338, offset: 0x1F338, size: 0x8, addend: 0x0, symName: __ZNSt3__128__exception_guard_exceptionsINS_29_AllocatorDestroyRangeReverseINS_9allocatorI8SamEntryEENS_16reverse_iteratorIPS3_EEEEED2B8ue170006Ev, symObjAddr: 0x75E4, symBinAddr: 0x100008904, symSize: 0x50 }
  - { offsetInCU: 0x1F362, offset: 0x1F362, size: 0x8, addend: 0x0, symName: __ZNKSt3__129_AllocatorDestroyRangeReverseINS_9allocatorI8SamEntryEENS_16reverse_iteratorIPS2_EEEclB8ue170006Ev, symObjAddr: 0x7634, symBinAddr: 0x100008954, symSize: 0xB4 }
  - { offsetInCU: 0x1F389, offset: 0x1F389, size: 0x8, addend: 0x0, symName: __ZNSt3__116reverse_iteratorINS0_IP8SamEntryEEEC1B8ue170006ES3_, symObjAddr: 0x7758, symBinAddr: 0x100008A78, symSize: 0x3C }
  - { offsetInCU: 0x1F3C1, offset: 0x1F3C1, size: 0x8, addend: 0x0, symName: __ZNSt3__116reverse_iteratorINS0_IP8SamEntryEEEppB8ue170006Ev, symObjAddr: 0x7818, symBinAddr: 0x100008B38, symSize: 0x30 }
  - { offsetInCU: 0x1F3E7, offset: 0x1F3E7, size: 0x8, addend: 0x0, symName: __ZNKSt3__116reverse_iteratorINS0_IP8SamEntryEEE4baseB8ue170006Ev, symObjAddr: 0x7848, symBinAddr: 0x100008B68, symSize: 0x24 }
  - { offsetInCU: 0x1F413, offset: 0x1F413, size: 0x8, addend: 0x0, symName: __ZNSt3__119__to_address_helperINS_16reverse_iteratorINS1_IP8SamEntryEEEEvE6__callB8ue170006ERKS5_, symObjAddr: 0x786C, symBinAddr: 0x100008B8C, symSize: 0x38 }
  - { offsetInCU: 0x1F436, offset: 0x1F436, size: 0x8, addend: 0x0, symName: __ZNKSt3__116reverse_iteratorINS0_IP8SamEntryEEEptB8ue170006Ev, symObjAddr: 0x78A4, symBinAddr: 0x100008BC4, symSize: 0x24 }
  - { offsetInCU: 0x1F45C, offset: 0x1F45C, size: 0x8, addend: 0x0, symName: __ZNKSt3__116reverse_iteratorINS0_IP8SamEntryEEEdeB8ue170006Ev, symObjAddr: 0x78C8, symBinAddr: 0x100008BE8, symSize: 0x34 }
  - { offsetInCU: 0x1F490, offset: 0x1F490, size: 0x8, addend: 0x0, symName: __ZNSt3__116reverse_iteratorIP8SamEntryEmmB8ue170006Ev, symObjAddr: 0x78FC, symBinAddr: 0x100008C1C, symSize: 0x20 }
  - { offsetInCU: 0x1F4B6, offset: 0x1F4B6, size: 0x8, addend: 0x0, symName: __ZNSt3__116reverse_iteratorINS0_IP8SamEntryEEEC2B8ue170006ES3_, symObjAddr: 0x791C, symBinAddr: 0x100008C3C, symSize: 0x2C }
  - { offsetInCU: 0x1F4EE, offset: 0x1F4EE, size: 0x8, addend: 0x0, symName: __ZNSt3__116reverse_iteratorIP8SamEntryEC2B8ue170006ES2_, symObjAddr: 0x7948, symBinAddr: 0x100008C68, symSize: 0x28 }
  - { offsetInCU: 0x1F526, offset: 0x1F526, size: 0x8, addend: 0x0, symName: __ZNSt3__114__split_bufferI8SamEntryRNS_9allocatorIS1_EEED2Ev, symObjAddr: 0x7970, symBinAddr: 0x100008C90, symSize: 0x8C }
  - { offsetInCU: 0x1F552, offset: 0x1F552, size: 0x8, addend: 0x0, symName: __ZNSt3__114__split_bufferI8SamEntryRNS_9allocatorIS1_EEE5clearB8ue170006Ev, symObjAddr: 0x79FC, symBinAddr: 0x100008D1C, symSize: 0x28 }
  - { offsetInCU: 0x1F578, offset: 0x1F578, size: 0x8, addend: 0x0, symName: __ZNKSt3__114__split_bufferI8SamEntryRNS_9allocatorIS1_EEE8capacityB8ue170006Ev, symObjAddr: 0x7A24, symBinAddr: 0x100008D44, symSize: 0x40 }
  - { offsetInCU: 0x1F59E, offset: 0x1F59E, size: 0x8, addend: 0x0, symName: __ZNSt3__114__split_bufferI8SamEntryRNS_9allocatorIS1_EEE17__destruct_at_endB8ue170006EPS1_, symObjAddr: 0x7A64, symBinAddr: 0x100008D84, symSize: 0x2C }
  - { offsetInCU: 0x1F5D2, offset: 0x1F5D2, size: 0x8, addend: 0x0, symName: __ZNSt3__114__split_bufferI8SamEntryRNS_9allocatorIS1_EEE17__destruct_at_endB8ue170006EPS1_NS_17integral_constantIbLb0EEE, symObjAddr: 0x7A90, symBinAddr: 0x100008DB0, symSize: 0x80 }
  - { offsetInCU: 0x1F612, offset: 0x1F612, size: 0x8, addend: 0x0, symName: __ZNKSt3__114__split_bufferI8SamEntryRNS_9allocatorIS1_EEE9__end_capB8ue170006Ev, symObjAddr: 0x7B10, symBinAddr: 0x100008E30, symSize: 0x28 }
  - { offsetInCU: 0x1F638, offset: 0x1F638, size: 0x8, addend: 0x0, symName: __ZNKSt3__117__compressed_pairIP8SamEntryRNS_9allocatorIS1_EEE5firstB8ue170006Ev, symObjAddr: 0x7B38, symBinAddr: 0x100008E58, symSize: 0x24 }
  - { offsetInCU: 0x1F65E, offset: 0x1F65E, size: 0x8, addend: 0x0, symName: __ZNSt3__16vectorINS_4pairIciEENS_9allocatorIS2_EEEC2B8ue170006Ev, symObjAddr: 0x7B5C, symBinAddr: 0x100008E7C, symSize: 0x4C }
  - { offsetInCU: 0x1F688, offset: 0x1F688, size: 0x8, addend: 0x0, symName: __ZNSt3__117__compressed_pairIPNS_4pairIciEENS_9allocatorIS2_EEEC1B8ue170006IDnNS_18__default_init_tagEEEOT_OT0_, symObjAddr: 0x7BA8, symBinAddr: 0x100008EC8, symSize: 0x3C }
  - { offsetInCU: 0x1F6E0, offset: 0x1F6E0, size: 0x8, addend: 0x0, symName: __ZNSt3__117__compressed_pairIPNS_4pairIciEENS_9allocatorIS2_EEEC2B8ue170006IDnNS_18__default_init_tagEEEOT_OT0_, symObjAddr: 0x7BE4, symBinAddr: 0x100008F04, symSize: 0x40 }
  - { offsetInCU: 0x1F738, offset: 0x1F738, size: 0x8, addend: 0x0, symName: __ZNSt3__122__compressed_pair_elemIPNS_4pairIciEELi0ELb0EEC2B8ue170006IDnvEEOT_, symObjAddr: 0x7C24, symBinAddr: 0x100008F44, symSize: 0x1C }
  - { offsetInCU: 0x1F77A, offset: 0x1F77A, size: 0x8, addend: 0x0, symName: __ZNSt3__122__compressed_pair_elemINS_9allocatorINS_4pairIciEEEELi1ELb1EEC2B8ue170006ENS_18__default_init_tagE, symObjAddr: 0x7C40, symBinAddr: 0x100008F60, symSize: 0x2C }
  - { offsetInCU: 0x1F7AE, offset: 0x1F7AE, size: 0x8, addend: 0x0, symName: __ZNSt3__19allocatorINS_4pairIciEEEC2B8ue170006Ev, symObjAddr: 0x7C6C, symBinAddr: 0x100008F8C, symSize: 0x2C }
  - { offsetInCU: 0x1F7D8, offset: 0x1F7D8, size: 0x8, addend: 0x0, symName: __ZNSt3__116__non_trivial_ifILb1ENS_9allocatorINS_4pairIciEEEEEC2B8ue170006Ev, symObjAddr: 0x7C98, symBinAddr: 0x100008FB8, symSize: 0x14 }
  - { offsetInCU: 0x1F802, offset: 0x1F802, size: 0x8, addend: 0x0, symName: __ZNSt3__16vectorINS_4pairIciEENS_9allocatorIS2_EEED2B8ue170006Ev, symObjAddr: 0x7CAC, symBinAddr: 0x100008FCC, symSize: 0x44 }
  - { offsetInCU: 0x1F82C, offset: 0x1F82C, size: 0x8, addend: 0x0, symName: __ZNSt3__16vectorINS_4pairIciEENS_9allocatorIS2_EEE16__destroy_vectorC1B8ue170006ERS5_, symObjAddr: 0x7CF0, symBinAddr: 0x100009010, symSize: 0x34 }
  - { offsetInCU: 0x1F865, offset: 0x1F865, size: 0x8, addend: 0x0, symName: __ZNSt3__16vectorINS_4pairIciEENS_9allocatorIS2_EEE16__destroy_vectorclB8ue170006Ev, symObjAddr: 0x7D24, symBinAddr: 0x100009044, symSize: 0x90 }
  - { offsetInCU: 0x1F88B, offset: 0x1F88B, size: 0x8, addend: 0x0, symName: __ZNSt3__16vectorINS_4pairIciEENS_9allocatorIS2_EEE16__destroy_vectorC2B8ue170006ERS5_, symObjAddr: 0x7DB4, symBinAddr: 0x1000090D4, symSize: 0x20 }
  - { offsetInCU: 0x1F8C4, offset: 0x1F8C4, size: 0x8, addend: 0x0, symName: __ZNSt3__16vectorINS_4pairIciEENS_9allocatorIS2_EEE7__clearB8ue170006Ev, symObjAddr: 0x7DD4, symBinAddr: 0x1000090F4, symSize: 0x28 }
  - { offsetInCU: 0x1F8EA, offset: 0x1F8EA, size: 0x8, addend: 0x0, symName: __ZNKSt3__16vectorINS_4pairIciEENS_9allocatorIS2_EEE17__annotate_deleteB8ue170006Ev, symObjAddr: 0x7DFC, symBinAddr: 0x10000911C, symSize: 0xB8 }
  - { offsetInCU: 0x1F910, offset: 0x1F910, size: 0x8, addend: 0x0, symName: __ZNSt3__116allocator_traitsINS_9allocatorINS_4pairIciEEEEE10deallocateB8ue170006ERS4_PS3_m, symObjAddr: 0x7EB4, symBinAddr: 0x1000091D4, symSize: 0x34 }
  - { offsetInCU: 0x1F952, offset: 0x1F952, size: 0x8, addend: 0x0, symName: __ZNSt3__16vectorINS_4pairIciEENS_9allocatorIS2_EEE7__allocB8ue170006Ev, symObjAddr: 0x7EE8, symBinAddr: 0x100009208, symSize: 0x28 }
  - { offsetInCU: 0x1F978, offset: 0x1F978, size: 0x8, addend: 0x0, symName: __ZNKSt3__16vectorINS_4pairIciEENS_9allocatorIS2_EEE8capacityB8ue170006Ev, symObjAddr: 0x7F10, symBinAddr: 0x100009230, symSize: 0x40 }
  - { offsetInCU: 0x1F99E, offset: 0x1F99E, size: 0x8, addend: 0x0, symName: __ZNSt3__16vectorINS_4pairIciEENS_9allocatorIS2_EEE22__base_destruct_at_endB8ue170006EPS2_, symObjAddr: 0x7F50, symBinAddr: 0x100009270, symSize: 0x8C }
  - { offsetInCU: 0x1F9E2, offset: 0x1F9E2, size: 0x8, addend: 0x0, symName: __ZNSt3__116allocator_traitsINS_9allocatorINS_4pairIciEEEEE7destroyB8ue170006IS3_vEEvRS4_PT_, symObjAddr: 0x7FDC, symBinAddr: 0x1000092FC, symSize: 0x2C }
  - { offsetInCU: 0x1FA1F, offset: 0x1FA1F, size: 0x8, addend: 0x0, symName: __ZNSt3__19allocatorINS_4pairIciEEE7destroyB8ue170006EPS2_, symObjAddr: 0x801C, symBinAddr: 0x10000933C, symSize: 0x14 }
  - { offsetInCU: 0x1FA53, offset: 0x1FA53, size: 0x8, addend: 0x0, symName: __ZNKSt3__16vectorINS_4pairIciEENS_9allocatorIS2_EEE31__annotate_contiguous_containerB8ue170006EPKvS7_S7_S7_, symObjAddr: 0x8030, symBinAddr: 0x100009350, symSize: 0x20 }
  - { offsetInCU: 0x1FAA5, offset: 0x1FAA5, size: 0x8, addend: 0x0, symName: __ZNKSt3__16vectorINS_4pairIciEENS_9allocatorIS2_EEE4dataB8ue170006Ev, symObjAddr: 0x8050, symBinAddr: 0x100009370, symSize: 0x28 }
  - { offsetInCU: 0x1FACB, offset: 0x1FACB, size: 0x8, addend: 0x0, symName: __ZNKSt3__16vectorINS_4pairIciEENS_9allocatorIS2_EEE4sizeB8ue170006Ev, symObjAddr: 0x8078, symBinAddr: 0x100009398, symSize: 0x28 }
  - { offsetInCU: 0x1FAF1, offset: 0x1FAF1, size: 0x8, addend: 0x0, symName: __ZNSt3__19allocatorINS_4pairIciEEE10deallocateB8ue170006EPS2_m, symObjAddr: 0x80A0, symBinAddr: 0x1000093C0, symSize: 0x40 }
  - { offsetInCU: 0x1FB33, offset: 0x1FB33, size: 0x8, addend: 0x0, symName: __ZNSt3__117__compressed_pairIPNS_4pairIciEENS_9allocatorIS2_EEE6secondB8ue170006Ev, symObjAddr: 0x80E0, symBinAddr: 0x100009400, symSize: 0x24 }
  - { offsetInCU: 0x1FB59, offset: 0x1FB59, size: 0x8, addend: 0x0, symName: __ZNSt3__122__compressed_pair_elemINS_9allocatorINS_4pairIciEEEELi1ELb1EE5__getB8ue170006Ev, symObjAddr: 0x8104, symBinAddr: 0x100009424, symSize: 0x14 }
  - { offsetInCU: 0x1FB7F, offset: 0x1FB7F, size: 0x8, addend: 0x0, symName: __ZNKSt3__16vectorINS_4pairIciEENS_9allocatorIS2_EEE9__end_capB8ue170006Ev, symObjAddr: 0x8118, symBinAddr: 0x100009438, symSize: 0x28 }
  - { offsetInCU: 0x1FBA5, offset: 0x1FBA5, size: 0x8, addend: 0x0, symName: __ZNKSt3__117__compressed_pairIPNS_4pairIciEENS_9allocatorIS2_EEE5firstB8ue170006Ev, symObjAddr: 0x8140, symBinAddr: 0x100009460, symSize: 0x24 }
  - { offsetInCU: 0x1FBCB, offset: 0x1FBCB, size: 0x8, addend: 0x0, symName: __ZNKSt3__122__compressed_pair_elemIPNS_4pairIciEELi0ELb0EE5__getB8ue170006Ev, symObjAddr: 0x8164, symBinAddr: 0x100009484, symSize: 0x14 }
  - { offsetInCU: 0x1FBF1, offset: 0x1FBF1, size: 0x8, addend: 0x0, symName: __ZNSt3__16vectorINS_4pairIciEENS_9allocatorIS2_EEE9__end_capB8ue170006Ev, symObjAddr: 0x8178, symBinAddr: 0x100009498, symSize: 0x28 }
  - { offsetInCU: 0x1FC17, offset: 0x1FC17, size: 0x8, addend: 0x0, symName: __ZNSt3__16vectorINS_4pairIciEENS_9allocatorIS2_EEE22__construct_one_at_endB8ue170006IJS2_EEEvDpOT_, symObjAddr: 0x81A0, symBinAddr: 0x1000094C0, symSize: 0x90 }
  - { offsetInCU: 0x1FC66, offset: 0x1FC66, size: 0x8, addend: 0x0, symName: __ZNSt3__16vectorINS_4pairIciEENS_9allocatorIS2_EEE21__push_back_slow_pathIS2_EEvOT_, symObjAddr: 0x8230, symBinAddr: 0x100009550, symSize: 0xD8 }
  - { offsetInCU: 0x1FCC4, offset: 0x1FCC4, size: 0x8, addend: 0x0, symName: __ZNSt3__117__compressed_pairIPNS_4pairIciEENS_9allocatorIS2_EEE5firstB8ue170006Ev, symObjAddr: 0x8308, symBinAddr: 0x100009628, symSize: 0x24 }
  - { offsetInCU: 0x1FCEA, offset: 0x1FCEA, size: 0x8, addend: 0x0, symName: __ZNSt3__122__compressed_pair_elemIPNS_4pairIciEELi0ELb0EE5__getB8ue170006Ev, symObjAddr: 0x832C, symBinAddr: 0x10000964C, symSize: 0x14 }
  - { offsetInCU: 0x1FD2B, offset: 0x1FD2B, size: 0x8, addend: 0x0, symName: __ZNSt3__16vectorINS_4pairIciEENS_9allocatorIS2_EEE21_ConstructTransactionC1B8ue170006ERS5_m, symObjAddr: 0x8340, symBinAddr: 0x100009660, symSize: 0x3C }
  - { offsetInCU: 0x1FD73, offset: 0x1FD73, size: 0x8, addend: 0x0, symName: __ZNSt3__116allocator_traitsINS_9allocatorINS_4pairIciEEEEE9constructB8ue170006IS3_JS3_EvEEvRS4_PT_DpOT0_, symObjAddr: 0x837C, symBinAddr: 0x10000969C, symSize: 0x34 }
  - { offsetInCU: 0x1FDCA, offset: 0x1FDCA, size: 0x8, addend: 0x0, symName: __ZNSt3__16vectorINS_4pairIciEENS_9allocatorIS2_EEE21_ConstructTransactionD1B8ue170006Ev, symObjAddr: 0x83B0, symBinAddr: 0x1000096D0, symSize: 0x2C }
  - { offsetInCU: 0x1FDF4, offset: 0x1FDF4, size: 0x8, addend: 0x0, symName: __ZNSt3__16vectorINS_4pairIciEENS_9allocatorIS2_EEE21_ConstructTransactionC2B8ue170006ERS5_m, symObjAddr: 0x83DC, symBinAddr: 0x1000096FC, symSize: 0x44 }
  - { offsetInCU: 0x1FE3C, offset: 0x1FE3C, size: 0x8, addend: 0x0, symName: __ZNSt3__19allocatorINS_4pairIciEEE9constructB8ue170006IS2_JS2_EEEvPT_DpOT0_, symObjAddr: 0x8420, symBinAddr: 0x100009740, symSize: 0x28 }
  - { offsetInCU: 0x1FE92, offset: 0x1FE92, size: 0x8, addend: 0x0, symName: __ZNSt3__16vectorINS_4pairIciEENS_9allocatorIS2_EEE21_ConstructTransactionD2B8ue170006Ev, symObjAddr: 0x8448, symBinAddr: 0x100009768, symSize: 0x20 }
  - { offsetInCU: 0x1FEBC, offset: 0x1FEBC, size: 0x8, addend: 0x0, symName: __ZNKSt3__16vectorINS_4pairIciEENS_9allocatorIS2_EEE11__recommendB8ue170006Em, symObjAddr: 0x8468, symBinAddr: 0x100009788, symSize: 0xB4 }
  - { offsetInCU: 0x1FF11, offset: 0x1FF11, size: 0x8, addend: 0x0, symName: __ZNSt3__114__split_bufferINS_4pairIciEERNS_9allocatorIS2_EEEC1EmmS5_, symObjAddr: 0x851C, symBinAddr: 0x10000983C, symSize: 0x44 }
  - { offsetInCU: 0x1FF67, offset: 0x1FF67, size: 0x8, addend: 0x0, symName: __ZNSt3__114__split_bufferINS_4pairIciEERNS_9allocatorIS2_EEED1Ev, symObjAddr: 0x8670, symBinAddr: 0x100009990, symSize: 0x2C }
  - { offsetInCU: 0x1FF93, offset: 0x1FF93, size: 0x8, addend: 0x0, symName: __ZNKSt3__16vectorINS_4pairIciEENS_9allocatorIS2_EEE8max_sizeEv, symObjAddr: 0x869C, symBinAddr: 0x1000099BC, symSize: 0x60 }
  - { offsetInCU: 0x1FFBB, offset: 0x1FFBB, size: 0x8, addend: 0x0, symName: __ZNKSt3__16vectorINS_4pairIciEENS_9allocatorIS2_EEE20__throw_length_errorB8ue170006Ev, symObjAddr: 0x86FC, symBinAddr: 0x100009A1C, symSize: 0x1C }
  - { offsetInCU: 0x1FFEC, offset: 0x1FFEC, size: 0x8, addend: 0x0, symName: __ZNSt3__116allocator_traitsINS_9allocatorINS_4pairIciEEEEE8max_sizeB8ue170006IS4_vEEmRKS4_, symObjAddr: 0x8718, symBinAddr: 0x100009A38, symSize: 0x24 }
  - { offsetInCU: 0x2001A, offset: 0x2001A, size: 0x8, addend: 0x0, symName: __ZNKSt3__16vectorINS_4pairIciEENS_9allocatorIS2_EEE7__allocB8ue170006Ev, symObjAddr: 0x873C, symBinAddr: 0x100009A5C, symSize: 0x28 }
  - { offsetInCU: 0x20040, offset: 0x20040, size: 0x8, addend: 0x0, symName: __ZNKSt3__19allocatorINS_4pairIciEEE8max_sizeB8ue170006Ev, symObjAddr: 0x8764, symBinAddr: 0x100009A84, symSize: 0x14 }
  - { offsetInCU: 0x20066, offset: 0x20066, size: 0x8, addend: 0x0, symName: __ZNKSt3__117__compressed_pairIPNS_4pairIciEENS_9allocatorIS2_EEE6secondB8ue170006Ev, symObjAddr: 0x8778, symBinAddr: 0x100009A98, symSize: 0x24 }
  - { offsetInCU: 0x2008C, offset: 0x2008C, size: 0x8, addend: 0x0, symName: __ZNKSt3__122__compressed_pair_elemINS_9allocatorINS_4pairIciEEEELi1ELb1EE5__getB8ue170006Ev, symObjAddr: 0x879C, symBinAddr: 0x100009ABC, symSize: 0x14 }
  - { offsetInCU: 0x200B2, offset: 0x200B2, size: 0x8, addend: 0x0, symName: __ZNSt3__114__split_bufferINS_4pairIciEERNS_9allocatorIS2_EEEC2EmmS5_, symObjAddr: 0x87B0, symBinAddr: 0x100009AD0, symSize: 0xD4 }
  - { offsetInCU: 0x20125, offset: 0x20125, size: 0x8, addend: 0x0, symName: __ZNSt3__117__compressed_pairIPNS_4pairIciEERNS_9allocatorIS2_EEEC1B8ue170006IDnS6_EEOT_OT0_, symObjAddr: 0x8884, symBinAddr: 0x100009BA4, symSize: 0x3C }
  - { offsetInCU: 0x2017D, offset: 0x2017D, size: 0x8, addend: 0x0, symName: __ZNSt3__114__split_bufferINS_4pairIciEERNS_9allocatorIS2_EEE7__allocB8ue170006Ev, symObjAddr: 0x8900, symBinAddr: 0x100009C20, symSize: 0x28 }
  - { offsetInCU: 0x201A3, offset: 0x201A3, size: 0x8, addend: 0x0, symName: __ZNSt3__114__split_bufferINS_4pairIciEERNS_9allocatorIS2_EEE9__end_capB8ue170006Ev, symObjAddr: 0x8928, symBinAddr: 0x100009C48, symSize: 0x28 }
  - { offsetInCU: 0x201C9, offset: 0x201C9, size: 0x8, addend: 0x0, symName: __ZNSt3__117__compressed_pairIPNS_4pairIciEERNS_9allocatorIS2_EEEC2B8ue170006IDnS6_EEOT_OT0_, symObjAddr: 0x8950, symBinAddr: 0x100009C70, symSize: 0x48 }
  - { offsetInCU: 0x20221, offset: 0x20221, size: 0x8, addend: 0x0, symName: __ZNSt3__122__compressed_pair_elemIRNS_9allocatorINS_4pairIciEEEELi1ELb0EEC2B8ue170006IS5_vEEOT_, symObjAddr: 0x8998, symBinAddr: 0x100009CB8, symSize: 0x20 }
  - { offsetInCU: 0x20263, offset: 0x20263, size: 0x8, addend: 0x0, symName: __ZNSt3__19allocatorINS_4pairIciEEE8allocateB8ue170006Em, symObjAddr: 0x89B8, symBinAddr: 0x100009CD8, symSize: 0x58 }
  - { offsetInCU: 0x20297, offset: 0x20297, size: 0x8, addend: 0x0, symName: __ZNSt3__117__compressed_pairIPNS_4pairIciEERNS_9allocatorIS2_EEE6secondB8ue170006Ev, symObjAddr: 0x8A10, symBinAddr: 0x100009D30, symSize: 0x28 }
  - { offsetInCU: 0x202BD, offset: 0x202BD, size: 0x8, addend: 0x0, symName: __ZNSt3__122__compressed_pair_elemIRNS_9allocatorINS_4pairIciEEEELi1ELb0EE5__getB8ue170006Ev, symObjAddr: 0x8A38, symBinAddr: 0x100009D58, symSize: 0x18 }
  - { offsetInCU: 0x202E3, offset: 0x202E3, size: 0x8, addend: 0x0, symName: __ZNSt3__117__compressed_pairIPNS_4pairIciEERNS_9allocatorIS2_EEE5firstB8ue170006Ev, symObjAddr: 0x8A50, symBinAddr: 0x100009D70, symSize: 0x24 }
  - { offsetInCU: 0x20309, offset: 0x20309, size: 0x8, addend: 0x0, symName: __ZNSt3__116reverse_iteratorIPNS_4pairIciEEEC1B8ue170006ES3_, symObjAddr: 0x8BA0, symBinAddr: 0x100009EC0, symSize: 0x34 }
  - { offsetInCU: 0x20341, offset: 0x20341, size: 0x8, addend: 0x0, symName: __ZNKSt3__116reverse_iteratorIPNS_4pairIciEEE4baseB8ue170006Ev, symObjAddr: 0x8BD4, symBinAddr: 0x100009EF4, symSize: 0x18 }
  - { offsetInCU: 0x20367, offset: 0x20367, size: 0x8, addend: 0x0, symName: __ZNKSt3__16vectorINS_4pairIciEENS_9allocatorIS2_EEE14__annotate_newB8ue170006Em, symObjAddr: 0x8C28, symBinAddr: 0x100009F48, symSize: 0xAC }
  - { offsetInCU: 0x2039C, offset: 0x2039C, size: 0x8, addend: 0x0, symName: __ZNSt3__129_AllocatorDestroyRangeReverseINS_9allocatorINS_4pairIciEEEENS_16reverse_iteratorIPS3_EEEC1B8ue170006ERS4_RS7_SA_, symObjAddr: 0x8D20, symBinAddr: 0x10000A040, symSize: 0x44 }
  - { offsetInCU: 0x203F3, offset: 0x203F3, size: 0x8, addend: 0x0, symName: __ZNKSt3__116reverse_iteratorIPNS_4pairIciEEEdeB8ue170006Ev, symObjAddr: 0x8DD0, symBinAddr: 0x10000A0F0, symSize: 0x28 }
  - { offsetInCU: 0x20427, offset: 0x20427, size: 0x8, addend: 0x0, symName: __ZNSt3__116reverse_iteratorIPNS_4pairIciEEEppB8ue170006Ev, symObjAddr: 0x8DF8, symBinAddr: 0x10000A118, symSize: 0x20 }
  - { offsetInCU: 0x2044D, offset: 0x2044D, size: 0x8, addend: 0x0, symName: __ZNSt3__128__exception_guard_exceptionsINS_29_AllocatorDestroyRangeReverseINS_9allocatorINS_4pairIciEEEENS_16reverse_iteratorIPS4_EEEEE10__completeB8ue170006Ev, symObjAddr: 0x8E18, symBinAddr: 0x10000A138, symSize: 0x1C }
  - { offsetInCU: 0x20473, offset: 0x20473, size: 0x8, addend: 0x0, symName: __ZNSt3__128__exception_guard_exceptionsINS_29_AllocatorDestroyRangeReverseINS_9allocatorINS_4pairIciEEEENS_16reverse_iteratorIPS4_EEEEED1B8ue170006Ev, symObjAddr: 0x8E34, symBinAddr: 0x10000A154, symSize: 0x2C }
  - { offsetInCU: 0x2049D, offset: 0x2049D, size: 0x8, addend: 0x0, symName: __ZNSt3__128__exception_guard_exceptionsINS_29_AllocatorDestroyRangeReverseINS_9allocatorINS_4pairIciEEEENS_16reverse_iteratorIPS4_EEEEEC1B8ue170006ES9_, symObjAddr: 0x8E60, symBinAddr: 0x10000A180, symSize: 0x34 }
  - { offsetInCU: 0x204D6, offset: 0x204D6, size: 0x8, addend: 0x0, symName: __ZNSt3__128__exception_guard_exceptionsINS_29_AllocatorDestroyRangeReverseINS_9allocatorINS_4pairIciEEEENS_16reverse_iteratorIPS4_EEEEEC2B8ue170006ES9_, symObjAddr: 0x8E94, symBinAddr: 0x10000A1B4, symSize: 0x30 }
  - { offsetInCU: 0x2050F, offset: 0x2050F, size: 0x8, addend: 0x0, symName: __ZNSt3__129_AllocatorDestroyRangeReverseINS_9allocatorINS_4pairIciEEEENS_16reverse_iteratorIPS3_EEEC2B8ue170006ERS4_RS7_SA_, symObjAddr: 0x8EC4, symBinAddr: 0x10000A1E4, symSize: 0x38 }
  - { offsetInCU: 0x2056C, offset: 0x2056C, size: 0x8, addend: 0x0, symName: __ZNSt3__119__to_address_helperINS_16reverse_iteratorIPNS_4pairIciEEEEvE6__callB8ue170006ERKS5_, symObjAddr: 0x8EFC, symBinAddr: 0x10000A21C, symSize: 0x38 }
  - { offsetInCU: 0x2058F, offset: 0x2058F, size: 0x8, addend: 0x0, symName: __ZNKSt3__116reverse_iteratorIPNS_4pairIciEEEptB8ue170006Ev, symObjAddr: 0x8F34, symBinAddr: 0x10000A254, symSize: 0x24 }
  - { offsetInCU: 0x205B5, offset: 0x205B5, size: 0x8, addend: 0x0, symName: __ZNSt3__128__exception_guard_exceptionsINS_29_AllocatorDestroyRangeReverseINS_9allocatorINS_4pairIciEEEENS_16reverse_iteratorIPS4_EEEEED2B8ue170006Ev, symObjAddr: 0x8F58, symBinAddr: 0x10000A278, symSize: 0x50 }
  - { offsetInCU: 0x205DF, offset: 0x205DF, size: 0x8, addend: 0x0, symName: __ZNKSt3__129_AllocatorDestroyRangeReverseINS_9allocatorINS_4pairIciEEEENS_16reverse_iteratorIPS3_EEEclB8ue170006Ev, symObjAddr: 0x8FA8, symBinAddr: 0x10000A2C8, symSize: 0xB4 }
  - { offsetInCU: 0x20606, offset: 0x20606, size: 0x8, addend: 0x0, symName: __ZNSt3__116reverse_iteratorINS0_IPNS_4pairIciEEEEEC1B8ue170006ES4_, symObjAddr: 0x90CC, symBinAddr: 0x10000A3EC, symSize: 0x3C }
  - { offsetInCU: 0x2063E, offset: 0x2063E, size: 0x8, addend: 0x0, symName: __ZNSt3__116reverse_iteratorINS0_IPNS_4pairIciEEEEEppB8ue170006Ev, symObjAddr: 0x918C, symBinAddr: 0x10000A4AC, symSize: 0x30 }
  - { offsetInCU: 0x20664, offset: 0x20664, size: 0x8, addend: 0x0, symName: __ZNKSt3__116reverse_iteratorINS0_IPNS_4pairIciEEEEE4baseB8ue170006Ev, symObjAddr: 0x91BC, symBinAddr: 0x10000A4DC, symSize: 0x24 }
  - { offsetInCU: 0x20690, offset: 0x20690, size: 0x8, addend: 0x0, symName: __ZNSt3__119__to_address_helperINS_16reverse_iteratorINS1_IPNS_4pairIciEEEEEEvE6__callB8ue170006ERKS6_, symObjAddr: 0x91E0, symBinAddr: 0x10000A500, symSize: 0x38 }
  - { offsetInCU: 0x206B3, offset: 0x206B3, size: 0x8, addend: 0x0, symName: __ZNKSt3__116reverse_iteratorINS0_IPNS_4pairIciEEEEEptB8ue170006Ev, symObjAddr: 0x9218, symBinAddr: 0x10000A538, symSize: 0x24 }
  - { offsetInCU: 0x206D9, offset: 0x206D9, size: 0x8, addend: 0x0, symName: __ZNKSt3__116reverse_iteratorINS0_IPNS_4pairIciEEEEEdeB8ue170006Ev, symObjAddr: 0x923C, symBinAddr: 0x10000A55C, symSize: 0x34 }
  - { offsetInCU: 0x2070D, offset: 0x2070D, size: 0x8, addend: 0x0, symName: __ZNSt3__116reverse_iteratorIPNS_4pairIciEEEmmB8ue170006Ev, symObjAddr: 0x9270, symBinAddr: 0x10000A590, symSize: 0x20 }
  - { offsetInCU: 0x20733, offset: 0x20733, size: 0x8, addend: 0x0, symName: __ZNSt3__116reverse_iteratorINS0_IPNS_4pairIciEEEEEC2B8ue170006ES4_, symObjAddr: 0x9290, symBinAddr: 0x10000A5B0, symSize: 0x2C }
  - { offsetInCU: 0x2076B, offset: 0x2076B, size: 0x8, addend: 0x0, symName: __ZNSt3__116reverse_iteratorIPNS_4pairIciEEEC2B8ue170006ES3_, symObjAddr: 0x92BC, symBinAddr: 0x10000A5DC, symSize: 0x28 }
  - { offsetInCU: 0x207A3, offset: 0x207A3, size: 0x8, addend: 0x0, symName: __ZNSt3__114__split_bufferINS_4pairIciEERNS_9allocatorIS2_EEED2Ev, symObjAddr: 0x92E4, symBinAddr: 0x10000A604, symSize: 0x8C }
  - { offsetInCU: 0x207CF, offset: 0x207CF, size: 0x8, addend: 0x0, symName: __ZNSt3__114__split_bufferINS_4pairIciEERNS_9allocatorIS2_EEE5clearB8ue170006Ev, symObjAddr: 0x9370, symBinAddr: 0x10000A690, symSize: 0x28 }
  - { offsetInCU: 0x207F5, offset: 0x207F5, size: 0x8, addend: 0x0, symName: __ZNKSt3__114__split_bufferINS_4pairIciEERNS_9allocatorIS2_EEE8capacityB8ue170006Ev, symObjAddr: 0x9398, symBinAddr: 0x10000A6B8, symSize: 0x40 }
  - { offsetInCU: 0x2081B, offset: 0x2081B, size: 0x8, addend: 0x0, symName: __ZNSt3__114__split_bufferINS_4pairIciEERNS_9allocatorIS2_EEE17__destruct_at_endB8ue170006EPS2_, symObjAddr: 0x93D8, symBinAddr: 0x10000A6F8, symSize: 0x2C }
  - { offsetInCU: 0x2084F, offset: 0x2084F, size: 0x8, addend: 0x0, symName: __ZNSt3__114__split_bufferINS_4pairIciEERNS_9allocatorIS2_EEE17__destruct_at_endB8ue170006EPS2_NS_17integral_constantIbLb0EEE, symObjAddr: 0x9404, symBinAddr: 0x10000A724, symSize: 0x80 }
  - { offsetInCU: 0x2088F, offset: 0x2088F, size: 0x8, addend: 0x0, symName: __ZNKSt3__114__split_bufferINS_4pairIciEERNS_9allocatorIS2_EEE9__end_capB8ue170006Ev, symObjAddr: 0x9484, symBinAddr: 0x10000A7A4, symSize: 0x28 }
  - { offsetInCU: 0x208B5, offset: 0x208B5, size: 0x8, addend: 0x0, symName: __ZNKSt3__117__compressed_pairIPNS_4pairIciEERNS_9allocatorIS2_EEE5firstB8ue170006Ev, symObjAddr: 0x94AC, symBinAddr: 0x10000A7CC, symSize: 0x24 }
  - { offsetInCU: 0x208F2, offset: 0x208F2, size: 0x8, addend: 0x0, symName: __ZNSt3__16__treeINS_12__value_typeIi16MutationProposalEENS_19__map_value_compareIiS3_NS_4lessIiEELb1EEENS_9allocatorIS3_EEE25__emplace_unique_key_argsIiJRKNS_21piecewise_construct_tENS_5tupleIJRKiEEENSF_IJEEEEEENS_4pairINS_15__tree_iteratorIS3_PNS_11__tree_nodeIS3_PvEElEEbEERKT_DpOT0_, symObjAddr: 0x94D0, symBinAddr: 0x10000A7F0, symSize: 0x100 }
  - { offsetInCU: 0x209C8, offset: 0x209C8, size: 0x8, addend: 0x0, symName: __ZNKSt3__115__tree_iteratorINS_12__value_typeIi16MutationProposalEEPNS_11__tree_nodeIS3_PvEElEptB8ue170006Ev, symObjAddr: 0x9600, symBinAddr: 0x10000A920, symSize: 0x2C }
  - { offsetInCU: 0x209EE, offset: 0x209EE, size: 0x8, addend: 0x0, symName: __ZNSt3__112__value_typeIi16MutationProposalE11__get_valueB8ue170006Ev, symObjAddr: 0x962C, symBinAddr: 0x10000A94C, symSize: 0x14 }
  - { offsetInCU: 0x20A14, offset: 0x20A14, size: 0x8, addend: 0x0, symName: __ZNSt3__16__treeINS_12__value_typeIi16MutationProposalEENS_19__map_value_compareIiS3_NS_4lessIiEELb1EEENS_9allocatorIS3_EEE12__find_equalIiEERPNS_16__tree_node_baseIPvEERPNS_15__tree_end_nodeISF_EERKT_, symObjAddr: 0x9640, symBinAddr: 0x10000A960, symSize: 0x184 }
  - { offsetInCU: 0x20A81, offset: 0x20A81, size: 0x8, addend: 0x0, symName: __ZNSt3__16__treeINS_12__value_typeIi16MutationProposalEENS_19__map_value_compareIiS3_NS_4lessIiEELb1EEENS_9allocatorIS3_EEE16__construct_nodeIJRKNS_21piecewise_construct_tENS_5tupleIJRKiEEENSF_IJEEEEEENS_10unique_ptrINS_11__tree_nodeIS3_PvEENS_22__tree_node_destructorINS8_ISN_EEEEEEDpOT_, symObjAddr: 0x97C4, symBinAddr: 0x10000AAE4, symSize: 0x120 }
  - { offsetInCU: 0x20B0A, offset: 0x20B0A, size: 0x8, addend: 0x0, symName: __ZNSt3__16__treeINS_12__value_typeIi16MutationProposalEENS_19__map_value_compareIiS3_NS_4lessIiEELb1EEENS_9allocatorIS3_EEE16__insert_node_atEPNS_15__tree_end_nodeIPNS_16__tree_node_baseIPvEEEERSF_SF_, symObjAddr: 0x98E4, symBinAddr: 0x10000AC04, symSize: 0xCC }
  - { offsetInCU: 0x20B5F, offset: 0x20B5F, size: 0x8, addend: 0x0, symName: __ZNKSt3__110unique_ptrINS_11__tree_nodeINS_12__value_typeIi16MutationProposalEEPvEENS_22__tree_node_destructorINS_9allocatorIS6_EEEEE3getB8ue170006Ev, symObjAddr: 0x99B0, symBinAddr: 0x10000ACD0, symSize: 0x28 }
  - { offsetInCU: 0x20B85, offset: 0x20B85, size: 0x8, addend: 0x0, symName: __ZNSt3__110unique_ptrINS_11__tree_nodeINS_12__value_typeIi16MutationProposalEEPvEENS_22__tree_node_destructorINS_9allocatorIS6_EEEEE7releaseB8ue170006Ev, symObjAddr: 0x99D8, symBinAddr: 0x10000ACF8, symSize: 0x44 }
  - { offsetInCU: 0x20BBA, offset: 0x20BBA, size: 0x8, addend: 0x0, symName: __ZNSt3__110unique_ptrINS_11__tree_nodeINS_12__value_typeIi16MutationProposalEEPvEENS_22__tree_node_destructorINS_9allocatorIS6_EEEEED1B8ue170006Ev, symObjAddr: 0x9A1C, symBinAddr: 0x10000AD3C, symSize: 0x2C }
  - { offsetInCU: 0x20BE4, offset: 0x20BE4, size: 0x8, addend: 0x0, symName: __ZNSt3__115__tree_iteratorINS_12__value_typeIi16MutationProposalEEPNS_11__tree_nodeIS3_PvEElEC1B8ue170006ES7_, symObjAddr: 0x9A48, symBinAddr: 0x10000AD68, symSize: 0x34 }
  - { offsetInCU: 0x20C23, offset: 0x20C23, size: 0x8, addend: 0x0, symName: __ZNSt3__14pairINS_15__tree_iteratorINS_12__value_typeIi16MutationProposalEEPNS_11__tree_nodeIS4_PvEElEEbEC1B8ue170006IS9_RbLS6_0EEEOT_OT0_, symObjAddr: 0x9A7C, symBinAddr: 0x10000AD9C, symSize: 0x3C }
  - { offsetInCU: 0x20C81, offset: 0x20C81, size: 0x8, addend: 0x0, symName: __ZNKSt3__16__treeINS_12__value_typeIi16MutationProposalEENS_19__map_value_compareIiS3_NS_4lessIiEELb1EEENS_9allocatorIS3_EEE6__rootB8ue170006Ev, symObjAddr: 0x9AB8, symBinAddr: 0x10000ADD8, symSize: 0x28 }
  - { offsetInCU: 0x20CA7, offset: 0x20CA7, size: 0x8, addend: 0x0, symName: __ZNKSt3__16__treeINS_12__value_typeIi16MutationProposalEENS_19__map_value_compareIiS3_NS_4lessIiEELb1EEENS_9allocatorIS3_EEE10__root_ptrB8ue170006Ev, symObjAddr: 0x9AE0, symBinAddr: 0x10000AE00, symSize: 0x24 }
  - { offsetInCU: 0x20CCD, offset: 0x20CCD, size: 0x8, addend: 0x0, symName: __ZNSt3__16__treeINS_12__value_typeIi16MutationProposalEENS_19__map_value_compareIiS3_NS_4lessIiEELb1EEENS_9allocatorIS3_EEE10value_compB8ue170006Ev, symObjAddr: 0x9B04, symBinAddr: 0x10000AE24, symSize: 0x28 }
  - { offsetInCU: 0x20CF3, offset: 0x20CF3, size: 0x8, addend: 0x0, symName: __ZNKSt3__119__map_value_compareIiNS_12__value_typeIi16MutationProposalEENS_4lessIiEELb1EEclB8ue170006ERKiRKS3_, symObjAddr: 0x9B2C, symBinAddr: 0x10000AE4C, symSize: 0x50 }
  - { offsetInCU: 0x20D37, offset: 0x20D37, size: 0x8, addend: 0x0, symName: __ZNKSt3__119__map_value_compareIiNS_12__value_typeIi16MutationProposalEENS_4lessIiEELb1EEclB8ue170006ERKS3_RKi, symObjAddr: 0x9B7C, symBinAddr: 0x10000AE9C, symSize: 0x48 }
  - { offsetInCU: 0x20D7B, offset: 0x20D7B, size: 0x8, addend: 0x0, symName: __ZNSt3__16__treeINS_12__value_typeIi16MutationProposalEENS_19__map_value_compareIiS3_NS_4lessIiEELb1EEENS_9allocatorIS3_EEE10__end_nodeB8ue170006Ev, symObjAddr: 0x9BC4, symBinAddr: 0x10000AEE4, symSize: 0x2C }
  - { offsetInCU: 0x20DA1, offset: 0x20DA1, size: 0x8, addend: 0x0, symName: __ZNKSt3__16__treeINS_12__value_typeIi16MutationProposalEENS_19__map_value_compareIiS3_NS_4lessIiEELb1EEENS_9allocatorIS3_EEE10__end_nodeB8ue170006Ev, symObjAddr: 0x9BF0, symBinAddr: 0x10000AF10, symSize: 0x2C }
  - { offsetInCU: 0x20DC7, offset: 0x20DC7, size: 0x8, addend: 0x0, symName: __ZNSt3__114pointer_traitsIPNS_15__tree_end_nodeIPNS_16__tree_node_baseIPvEEEEE10pointer_toB8ue170006ERS6_, symObjAddr: 0x9C1C, symBinAddr: 0x10000AF3C, symSize: 0x14 }
  - { offsetInCU: 0x20DEA, offset: 0x20DEA, size: 0x8, addend: 0x0, symName: __ZNKSt3__117__compressed_pairINS_15__tree_end_nodeIPNS_16__tree_node_baseIPvEEEENS_9allocatorINS_11__tree_nodeINS_12__value_typeIi16MutationProposalEES3_EEEEE5firstB8ue170006Ev, symObjAddr: 0x9C30, symBinAddr: 0x10000AF50, symSize: 0x24 }
  - { offsetInCU: 0x20E10, offset: 0x20E10, size: 0x8, addend: 0x0, symName: __ZNKSt3__122__compressed_pair_elemINS_15__tree_end_nodeIPNS_16__tree_node_baseIPvEEEELi0ELb0EE5__getB8ue170006Ev, symObjAddr: 0x9C54, symBinAddr: 0x10000AF74, symSize: 0x14 }
  - { offsetInCU: 0x20E36, offset: 0x20E36, size: 0x8, addend: 0x0, symName: __ZNSt3__117__compressed_pairImNS_19__map_value_compareIiNS_12__value_typeIi16MutationProposalEENS_4lessIiEELb1EEEE6secondB8ue170006Ev, symObjAddr: 0x9C68, symBinAddr: 0x10000AF88, symSize: 0x24 }
  - { offsetInCU: 0x20E5C, offset: 0x20E5C, size: 0x8, addend: 0x0, symName: __ZNSt3__122__compressed_pair_elemINS_19__map_value_compareIiNS_12__value_typeIi16MutationProposalEENS_4lessIiEELb1EEELi1ELb1EE5__getB8ue170006Ev, symObjAddr: 0x9C8C, symBinAddr: 0x10000AFAC, symSize: 0x14 }
  - { offsetInCU: 0x20E82, offset: 0x20E82, size: 0x8, addend: 0x0, symName: __ZNKSt3__14lessIiEclB8ue170006ERKiS3_, symObjAddr: 0x9CA0, symBinAddr: 0x10000AFC0, symSize: 0x34 }
  - { offsetInCU: 0x20EC6, offset: 0x20EC6, size: 0x8, addend: 0x0, symName: __ZNKSt3__112__value_typeIi16MutationProposalE11__get_valueB8ue170006Ev, symObjAddr: 0x9CD4, symBinAddr: 0x10000AFF4, symSize: 0x14 }
  - { offsetInCU: 0x20EEC, offset: 0x20EEC, size: 0x8, addend: 0x0, symName: __ZNSt3__117__compressed_pairINS_15__tree_end_nodeIPNS_16__tree_node_baseIPvEEEENS_9allocatorINS_11__tree_nodeINS_12__value_typeIi16MutationProposalEES3_EEEEE5firstB8ue170006Ev, symObjAddr: 0x9CE8, symBinAddr: 0x10000B008, symSize: 0x24 }
  - { offsetInCU: 0x20F12, offset: 0x20F12, size: 0x8, addend: 0x0, symName: __ZNSt3__122__compressed_pair_elemINS_15__tree_end_nodeIPNS_16__tree_node_baseIPvEEEELi0ELb0EE5__getB8ue170006Ev, symObjAddr: 0x9D0C, symBinAddr: 0x10000B02C, symSize: 0x14 }
  - { offsetInCU: 0x20F38, offset: 0x20F38, size: 0x8, addend: 0x0, symName: __ZNSt3__16__treeINS_12__value_typeIi16MutationProposalEENS_19__map_value_compareIiS3_NS_4lessIiEELb1EEENS_9allocatorIS3_EEE12__node_allocB8ue170006Ev, symObjAddr: 0x9D20, symBinAddr: 0x10000B040, symSize: 0x28 }
  - { offsetInCU: 0x20F5E, offset: 0x20F5E, size: 0x8, addend: 0x0, symName: __ZNSt3__116allocator_traitsINS_9allocatorINS_11__tree_nodeINS_12__value_typeIi16MutationProposalEEPvEEEEE8allocateB8ue170006ERS8_m, symObjAddr: 0x9D48, symBinAddr: 0x10000B068, symSize: 0x2C }
  - { offsetInCU: 0x20F91, offset: 0x20F91, size: 0x8, addend: 0x0, symName: __ZNSt3__122__tree_node_destructorINS_9allocatorINS_11__tree_nodeINS_12__value_typeIi16MutationProposalEEPvEEEEEC1B8ue170006ERS8_b, symObjAddr: 0x9D74, symBinAddr: 0x10000B094, symSize: 0x48 }
  - { offsetInCU: 0x20FDF, offset: 0x20FDF, size: 0x8, addend: 0x0, symName: __ZNSt3__110unique_ptrINS_11__tree_nodeINS_12__value_typeIi16MutationProposalEEPvEENS_22__tree_node_destructorINS_9allocatorIS6_EEEEEC1B8ue170006ILb1EvEEPS6_NS_16__dependent_typeINS_27__unique_ptr_deleter_sfinaeISA_EEXT_EE20__good_rval_ref_typeE, symObjAddr: 0x9DBC, symBinAddr: 0x10000B0DC, symSize: 0x3C }
  - { offsetInCU: 0x21030, offset: 0x21030, size: 0x8, addend: 0x0, symName: __ZNSt3__116allocator_traitsINS_9allocatorINS_11__tree_nodeINS_12__value_typeIi16MutationProposalEEPvEEEEE9constructB8ue170006INS_4pairIKiS4_EEJRKNS_21piecewise_construct_tENS_5tupleIJRSC_EEENSH_IJEEEEvEEvRS8_PT_DpOT0_, symObjAddr: 0x9DF8, symBinAddr: 0x10000B118, symSize: 0x44 }
  - { offsetInCU: 0x210AF, offset: 0x210AF, size: 0x8, addend: 0x0, symName: __ZNSt3__122__tree_key_value_typesINS_12__value_typeIi16MutationProposalEEE9__get_ptrB8ue170006ERS3_, symObjAddr: 0x9E3C, symBinAddr: 0x10000B15C, symSize: 0x24 }
  - { offsetInCU: 0x210D3, offset: 0x210D3, size: 0x8, addend: 0x0, symName: __ZNKSt3__110unique_ptrINS_11__tree_nodeINS_12__value_typeIi16MutationProposalEEPvEENS_22__tree_node_destructorINS_9allocatorIS6_EEEEEptB8ue170006Ev, symObjAddr: 0x9E60, symBinAddr: 0x10000B180, symSize: 0x28 }
  - { offsetInCU: 0x210F9, offset: 0x210F9, size: 0x8, addend: 0x0, symName: __ZNSt3__110unique_ptrINS_11__tree_nodeINS_12__value_typeIi16MutationProposalEEPvEENS_22__tree_node_destructorINS_9allocatorIS6_EEEEE11get_deleterB8ue170006Ev, symObjAddr: 0x9E88, symBinAddr: 0x10000B1A8, symSize: 0x24 }
  - { offsetInCU: 0x2111F, offset: 0x2111F, size: 0x8, addend: 0x0, symName: __ZNSt3__117__compressed_pairINS_15__tree_end_nodeIPNS_16__tree_node_baseIPvEEEENS_9allocatorINS_11__tree_nodeINS_12__value_typeIi16MutationProposalEES3_EEEEE6secondB8ue170006Ev, symObjAddr: 0x9EAC, symBinAddr: 0x10000B1CC, symSize: 0x24 }
  - { offsetInCU: 0x21145, offset: 0x21145, size: 0x8, addend: 0x0, symName: __ZNSt3__122__compressed_pair_elemINS_9allocatorINS_11__tree_nodeINS_12__value_typeIi16MutationProposalEEPvEEEELi1ELb1EE5__getB8ue170006Ev, symObjAddr: 0x9ED0, symBinAddr: 0x10000B1F0, symSize: 0x14 }
  - { offsetInCU: 0x2116B, offset: 0x2116B, size: 0x8, addend: 0x0, symName: __ZNSt3__19allocatorINS_11__tree_nodeINS_12__value_typeIi16MutationProposalEEPvEEE8allocateB8ue170006Em, symObjAddr: 0x9EE4, symBinAddr: 0x10000B204, symSize: 0x5C }
  - { offsetInCU: 0x211AA, offset: 0x211AA, size: 0x8, addend: 0x0, symName: __ZNSt3__116allocator_traitsINS_9allocatorINS_11__tree_nodeINS_12__value_typeIi16MutationProposalEEPvEEEEE8max_sizeB8ue170006IS8_vEEmRKS8_, symObjAddr: 0x9F40, symBinAddr: 0x10000B260, symSize: 0x24 }
  - { offsetInCU: 0x211D8, offset: 0x211D8, size: 0x8, addend: 0x0, symName: __ZNKSt3__19allocatorINS_11__tree_nodeINS_12__value_typeIi16MutationProposalEEPvEEE8max_sizeB8ue170006Ev, symObjAddr: 0x9F64, symBinAddr: 0x10000B284, symSize: 0x20 }
  - { offsetInCU: 0x211FE, offset: 0x211FE, size: 0x8, addend: 0x0, symName: __ZNSt3__122__tree_node_destructorINS_9allocatorINS_11__tree_nodeINS_12__value_typeIi16MutationProposalEEPvEEEEEC2B8ue170006ERS8_b, symObjAddr: 0x9F84, symBinAddr: 0x10000B2A4, symSize: 0x38 }
  - { offsetInCU: 0x21246, offset: 0x21246, size: 0x8, addend: 0x0, symName: __ZNSt3__110unique_ptrINS_11__tree_nodeINS_12__value_typeIi16MutationProposalEEPvEENS_22__tree_node_destructorINS_9allocatorIS6_EEEEEC2B8ue170006ILb1EvEEPS6_NS_16__dependent_typeINS_27__unique_ptr_deleter_sfinaeISA_EEXT_EE20__good_rval_ref_typeE, symObjAddr: 0x9FBC, symBinAddr: 0x10000B2DC, symSize: 0x48 }
  - { offsetInCU: 0x21297, offset: 0x21297, size: 0x8, addend: 0x0, symName: __ZNSt3__117__compressed_pairIPNS_11__tree_nodeINS_12__value_typeIi16MutationProposalEEPvEENS_22__tree_node_destructorINS_9allocatorIS6_EEEEEC1B8ue170006IRS7_SB_EEOT_OT0_, symObjAddr: 0xA004, symBinAddr: 0x10000B324, symSize: 0x3C }
  - { offsetInCU: 0x212EF, offset: 0x212EF, size: 0x8, addend: 0x0, symName: __ZNSt3__117__compressed_pairIPNS_11__tree_nodeINS_12__value_typeIi16MutationProposalEEPvEENS_22__tree_node_destructorINS_9allocatorIS6_EEEEEC2B8ue170006IRS7_SB_EEOT_OT0_, symObjAddr: 0xA040, symBinAddr: 0x10000B360, symSize: 0x48 }
  - { offsetInCU: 0x21347, offset: 0x21347, size: 0x8, addend: 0x0, symName: __ZNSt3__122__compressed_pair_elemIPNS_11__tree_nodeINS_12__value_typeIi16MutationProposalEEPvEELi0ELb0EEC2B8ue170006IRS7_vEEOT_, symObjAddr: 0xA088, symBinAddr: 0x10000B3A8, symSize: 0x24 }
  - { offsetInCU: 0x21389, offset: 0x21389, size: 0x8, addend: 0x0, symName: __ZNSt3__122__compressed_pair_elemINS_22__tree_node_destructorINS_9allocatorINS_11__tree_nodeINS_12__value_typeIi16MutationProposalEEPvEEEEEELi1ELb0EEC2B8ue170006ISA_vEEOT_, symObjAddr: 0xA0AC, symBinAddr: 0x10000B3CC, symSize: 0x24 }
  - { offsetInCU: 0x213CB, offset: 0x213CB, size: 0x8, addend: 0x0, symName: __ZNSt3__19allocatorINS_11__tree_nodeINS_12__value_typeIi16MutationProposalEEPvEEE9constructB8ue170006INS_4pairIKiS3_EEJRKNS_21piecewise_construct_tENS_5tupleIJRSA_EEENSF_IJEEEEEEvPT_DpOT0_, symObjAddr: 0xA0D0, symBinAddr: 0x10000B3F0, symSize: 0x44 }
  - { offsetInCU: 0x21447, offset: 0x21447, size: 0x8, addend: 0x0, symName: __ZNSt3__14pairIKi16MutationProposalEC1B8ue170006IJRS1_EJEEENS_21piecewise_construct_tENS_5tupleIJDpT_EEENS7_IJDpT0_EEE, symObjAddr: 0xA114, symBinAddr: 0x10000B434, symSize: 0x44 }
  - { offsetInCU: 0x214AE, offset: 0x214AE, size: 0x8, addend: 0x0, symName: __ZNSt3__14pairIKi16MutationProposalEC1B8ue170006IJRS1_EJEJLm0EEJEEENS_21piecewise_construct_tERNS_5tupleIJDpT_EEERNS7_IJDpT0_EEENS_15__tuple_indicesIJXspT1_EEEENSG_IJXspT2_EEEE, symObjAddr: 0xA158, symBinAddr: 0x10000B478, symSize: 0x3C }
  - { offsetInCU: 0x2153B, offset: 0x2153B, size: 0x8, addend: 0x0, symName: __ZNSt3__14pairIKi16MutationProposalEC2B8ue170006IJRS1_EJEJLm0EEJEEENS_21piecewise_construct_tERNS_5tupleIJDpT_EEERNS7_IJDpT0_EEENS_15__tuple_indicesIJXspT1_EEEENSG_IJXspT2_EEEE, symObjAddr: 0xA194, symBinAddr: 0x10000B4B4, symSize: 0x60 }
  - { offsetInCU: 0x215CD, offset: 0x215CD, size: 0x8, addend: 0x0, symName: __ZN16MutationProposalC1Ev, symObjAddr: 0xA218, symBinAddr: 0x10000B538, symSize: 0x2C }
  - { offsetInCU: 0x215F9, offset: 0x215F9, size: 0x8, addend: 0x0, symName: __ZNSt3__112__tuple_leafILm0ERKiLb0EE3getB8ue170006Ev, symObjAddr: 0xA244, symBinAddr: 0x10000B564, symSize: 0x18 }
  - { offsetInCU: 0x2161F, offset: 0x2161F, size: 0x8, addend: 0x0, symName: __ZN16MutationProposalC2Ev, symObjAddr: 0xA25C, symBinAddr: 0x10000B57C, symSize: 0x4C }
  - { offsetInCU: 0x2164B, offset: 0x2164B, size: 0x8, addend: 0x0, symName: __ZNSt3__16vectorIcNS_9allocatorIcEEEC1B8ue170006Ev, symObjAddr: 0xA2A8, symBinAddr: 0x10000B5C8, symSize: 0x2C }
  - { offsetInCU: 0x21675, offset: 0x21675, size: 0x8, addend: 0x0, symName: __ZNSt3__16vectorIcNS_9allocatorIcEEEC2B8ue170006Ev, symObjAddr: 0xA2D4, symBinAddr: 0x10000B5F4, symSize: 0x4C }
  - { offsetInCU: 0x2169F, offset: 0x2169F, size: 0x8, addend: 0x0, symName: __ZNSt3__117__compressed_pairIPcNS_9allocatorIcEEEC1B8ue170006IDnNS_18__default_init_tagEEEOT_OT0_, symObjAddr: 0xA320, symBinAddr: 0x10000B640, symSize: 0x3C }
  - { offsetInCU: 0x216F7, offset: 0x216F7, size: 0x8, addend: 0x0, symName: __ZNSt3__117__compressed_pairIPcNS_9allocatorIcEEEC2B8ue170006IDnNS_18__default_init_tagEEEOT_OT0_, symObjAddr: 0xA35C, symBinAddr: 0x10000B67C, symSize: 0x40 }
  - { offsetInCU: 0x2174F, offset: 0x2174F, size: 0x8, addend: 0x0, symName: __ZNSt3__122__compressed_pair_elemIPcLi0ELb0EEC2B8ue170006IDnvEEOT_, symObjAddr: 0xA39C, symBinAddr: 0x10000B6BC, symSize: 0x1C }
  - { offsetInCU: 0x21791, offset: 0x21791, size: 0x8, addend: 0x0, symName: __ZNKSt3__117__compressed_pairIPNS_11__tree_nodeINS_12__value_typeIi16MutationProposalEEPvEENS_22__tree_node_destructorINS_9allocatorIS6_EEEEE5firstB8ue170006Ev, symObjAddr: 0xA3B8, symBinAddr: 0x10000B6D8, symSize: 0x24 }
  - { offsetInCU: 0x217B7, offset: 0x217B7, size: 0x8, addend: 0x0, symName: __ZNKSt3__122__compressed_pair_elemIPNS_11__tree_nodeINS_12__value_typeIi16MutationProposalEEPvEELi0ELb0EE5__getB8ue170006Ev, symObjAddr: 0xA3DC, symBinAddr: 0x10000B6FC, symSize: 0x14 }
  - { offsetInCU: 0x217DD, offset: 0x217DD, size: 0x8, addend: 0x0, symName: __ZNSt3__117__compressed_pairIPNS_11__tree_nodeINS_12__value_typeIi16MutationProposalEEPvEENS_22__tree_node_destructorINS_9allocatorIS6_EEEEE6secondB8ue170006Ev, symObjAddr: 0xA3F0, symBinAddr: 0x10000B710, symSize: 0x28 }
  - { offsetInCU: 0x21803, offset: 0x21803, size: 0x8, addend: 0x0, symName: __ZNSt3__122__compressed_pair_elemINS_22__tree_node_destructorINS_9allocatorINS_11__tree_nodeINS_12__value_typeIi16MutationProposalEEPvEEEEEELi1ELb0EE5__getB8ue170006Ev, symObjAddr: 0xA418, symBinAddr: 0x10000B738, symSize: 0x14 }
  - { offsetInCU: 0x21829, offset: 0x21829, size: 0x8, addend: 0x0, symName: __ZNSt3__16__treeINS_12__value_typeIi16MutationProposalEENS_19__map_value_compareIiS3_NS_4lessIiEELb1EEENS_9allocatorIS3_EEE12__begin_nodeB8ue170006Ev, symObjAddr: 0xA42C, symBinAddr: 0x10000B74C, symSize: 0x14 }
  - { offsetInCU: 0x2184F, offset: 0x2184F, size: 0x8, addend: 0x0, symName: __ZNSt3__16__treeINS_12__value_typeIi16MutationProposalEENS_19__map_value_compareIiS3_NS_4lessIiEELb1EEENS_9allocatorIS3_EEE4sizeB8ue170006Ev, symObjAddr: 0xA6BC, symBinAddr: 0x10000B9DC, symSize: 0x28 }
  - { offsetInCU: 0x21875, offset: 0x21875, size: 0x8, addend: 0x0, symName: __ZNSt3__116__tree_node_baseIPvE12__set_parentB8ue170006EPS2_, symObjAddr: 0xA888, symBinAddr: 0x10000BBA8, symSize: 0x20 }
  - { offsetInCU: 0x218AA, offset: 0x218AA, size: 0x8, addend: 0x0, symName: __ZNSt3__117__compressed_pairImNS_19__map_value_compareIiNS_12__value_typeIi16MutationProposalEENS_4lessIiEELb1EEEE5firstB8ue170006Ev, symObjAddr: 0xA8A8, symBinAddr: 0x10000BBC8, symSize: 0x24 }
  - { offsetInCU: 0x218D0, offset: 0x218D0, size: 0x8, addend: 0x0, symName: __ZNSt3__122__compressed_pair_elemImLi0ELb0EE5__getB8ue170006Ev, symObjAddr: 0xA8CC, symBinAddr: 0x10000BBEC, symSize: 0x14 }
  - { offsetInCU: 0x218F6, offset: 0x218F6, size: 0x8, addend: 0x0, symName: __ZNSt3__117__compressed_pairIPNS_11__tree_nodeINS_12__value_typeIi16MutationProposalEEPvEENS_22__tree_node_destructorINS_9allocatorIS6_EEEEE5firstB8ue170006Ev, symObjAddr: 0xA8E0, symBinAddr: 0x10000BC00, symSize: 0x24 }
  - { offsetInCU: 0x2191C, offset: 0x2191C, size: 0x8, addend: 0x0, symName: __ZNSt3__122__compressed_pair_elemIPNS_11__tree_nodeINS_12__value_typeIi16MutationProposalEEPvEELi0ELb0EE5__getB8ue170006Ev, symObjAddr: 0xA904, symBinAddr: 0x10000BC24, symSize: 0x14 }
  - { offsetInCU: 0x21942, offset: 0x21942, size: 0x8, addend: 0x0, symName: __ZNSt3__110unique_ptrINS_11__tree_nodeINS_12__value_typeIi16MutationProposalEEPvEENS_22__tree_node_destructorINS_9allocatorIS6_EEEEED2B8ue170006Ev, symObjAddr: 0xA918, symBinAddr: 0x10000BC38, symSize: 0x30 }
  - { offsetInCU: 0x2196C, offset: 0x2196C, size: 0x8, addend: 0x0, symName: __ZNSt3__110unique_ptrINS_11__tree_nodeINS_12__value_typeIi16MutationProposalEEPvEENS_22__tree_node_destructorINS_9allocatorIS6_EEEEE5resetB8ue170006EPS6_, symObjAddr: 0xA948, symBinAddr: 0x10000BC68, symSize: 0x78 }
  - { offsetInCU: 0x219B0, offset: 0x219B0, size: 0x8, addend: 0x0, symName: __ZNSt3__122__tree_node_destructorINS_9allocatorINS_11__tree_nodeINS_12__value_typeIi16MutationProposalEEPvEEEEEclB8ue170006EPS7_, symObjAddr: 0xA9C0, symBinAddr: 0x10000BCE0, symSize: 0x98 }
  - { offsetInCU: 0x219E5, offset: 0x219E5, size: 0x8, addend: 0x0, symName: __ZNSt3__116allocator_traitsINS_9allocatorINS_11__tree_nodeINS_12__value_typeIi16MutationProposalEEPvEEEEE7destroyB8ue170006INS_4pairIKiS4_EEvvEEvRS8_PT_, symObjAddr: 0xAA58, symBinAddr: 0x10000BD78, symSize: 0x28 }
  - { offsetInCU: 0x21A1F, offset: 0x21A1F, size: 0x8, addend: 0x0, symName: __ZNSt3__116allocator_traitsINS_9allocatorINS_11__tree_nodeINS_12__value_typeIi16MutationProposalEEPvEEEEE10deallocateB8ue170006ERS8_PS7_m, symObjAddr: 0xAA80, symBinAddr: 0x10000BDA0, symSize: 0x34 }
  - { offsetInCU: 0x21A61, offset: 0x21A61, size: 0x8, addend: 0x0, symName: __ZNSt3__14pairIKi16MutationProposalED1Ev, symObjAddr: 0xAAB4, symBinAddr: 0x10000BDD4, symSize: 0x2C }
  - { offsetInCU: 0x21A8D, offset: 0x21A8D, size: 0x8, addend: 0x0, symName: __ZNSt3__14pairIKi16MutationProposalED2Ev, symObjAddr: 0xAAE0, symBinAddr: 0x10000BE00, symSize: 0x30 }
  - { offsetInCU: 0x21AB9, offset: 0x21AB9, size: 0x8, addend: 0x0, symName: __ZN16MutationProposalD1Ev, symObjAddr: 0xAB10, symBinAddr: 0x10000BE30, symSize: 0x2C }
  - { offsetInCU: 0x21AE5, offset: 0x21AE5, size: 0x8, addend: 0x0, symName: __ZN16MutationProposalD2Ev, symObjAddr: 0xAB3C, symBinAddr: 0x10000BE5C, symSize: 0x3C }
  - { offsetInCU: 0x21B11, offset: 0x21B11, size: 0x8, addend: 0x0, symName: __ZNSt3__16vectorIcNS_9allocatorIcEEED1B8ue170006Ev, symObjAddr: 0xAB78, symBinAddr: 0x10000BE98, symSize: 0x2C }
  - { offsetInCU: 0x21B3B, offset: 0x21B3B, size: 0x8, addend: 0x0, symName: __ZNSt3__16vectorIcNS_9allocatorIcEEED2B8ue170006Ev, symObjAddr: 0xABA4, symBinAddr: 0x10000BEC4, symSize: 0x44 }
  - { offsetInCU: 0x21B65, offset: 0x21B65, size: 0x8, addend: 0x0, symName: __ZNSt3__16vectorIcNS_9allocatorIcEEE16__destroy_vectorC1B8ue170006ERS3_, symObjAddr: 0xABE8, symBinAddr: 0x10000BF08, symSize: 0x34 }
  - { offsetInCU: 0x21B9E, offset: 0x21B9E, size: 0x8, addend: 0x0, symName: __ZNSt3__16vectorIcNS_9allocatorIcEEE16__destroy_vectorclB8ue170006Ev, symObjAddr: 0xAC1C, symBinAddr: 0x10000BF3C, symSize: 0x90 }
  - { offsetInCU: 0x21BC4, offset: 0x21BC4, size: 0x8, addend: 0x0, symName: __ZNSt3__16vectorIcNS_9allocatorIcEEE16__destroy_vectorC2B8ue170006ERS3_, symObjAddr: 0xACAC, symBinAddr: 0x10000BFCC, symSize: 0x20 }
  - { offsetInCU: 0x21BFD, offset: 0x21BFD, size: 0x8, addend: 0x0, symName: __ZNSt3__16vectorIcNS_9allocatorIcEEE7__clearB8ue170006Ev, symObjAddr: 0xACCC, symBinAddr: 0x10000BFEC, symSize: 0x28 }
  - { offsetInCU: 0x21C23, offset: 0x21C23, size: 0x8, addend: 0x0, symName: __ZNKSt3__16vectorIcNS_9allocatorIcEEE17__annotate_deleteB8ue170006Ev, symObjAddr: 0xACF4, symBinAddr: 0x10000C014, symSize: 0xB8 }
  - { offsetInCU: 0x21C49, offset: 0x21C49, size: 0x8, addend: 0x0, symName: __ZNSt3__116allocator_traitsINS_9allocatorIcEEE10deallocateB8ue170006ERS2_Pcm, symObjAddr: 0xADAC, symBinAddr: 0x10000C0CC, symSize: 0x34 }
  - { offsetInCU: 0x21C8B, offset: 0x21C8B, size: 0x8, addend: 0x0, symName: __ZNSt3__16vectorIcNS_9allocatorIcEEE7__allocB8ue170006Ev, symObjAddr: 0xADE0, symBinAddr: 0x10000C100, symSize: 0x28 }
  - { offsetInCU: 0x21CB1, offset: 0x21CB1, size: 0x8, addend: 0x0, symName: __ZNKSt3__16vectorIcNS_9allocatorIcEEE8capacityB8ue170006Ev, symObjAddr: 0xAE08, symBinAddr: 0x10000C128, symSize: 0x38 }
  - { offsetInCU: 0x21CD7, offset: 0x21CD7, size: 0x8, addend: 0x0, symName: __ZNSt3__16vectorIcNS_9allocatorIcEEE22__base_destruct_at_endB8ue170006EPc, symObjAddr: 0xAE40, symBinAddr: 0x10000C160, symSize: 0x8C }
  - { offsetInCU: 0x21D1B, offset: 0x21D1B, size: 0x8, addend: 0x0, symName: __ZNSt3__116allocator_traitsINS_9allocatorIcEEE7destroyB8ue170006IcvEEvRS2_PT_, symObjAddr: 0xAECC, symBinAddr: 0x10000C1EC, symSize: 0x2C }
  - { offsetInCU: 0x21D58, offset: 0x21D58, size: 0x8, addend: 0x0, symName: __ZNSt3__19allocatorIcE7destroyB8ue170006EPc, symObjAddr: 0xAF0C, symBinAddr: 0x10000C22C, symSize: 0x14 }
  - { offsetInCU: 0x21D8C, offset: 0x21D8C, size: 0x8, addend: 0x0, symName: __ZNKSt3__16vectorIcNS_9allocatorIcEEE31__annotate_contiguous_containerB8ue170006EPKvS5_S5_S5_, symObjAddr: 0xAF20, symBinAddr: 0x10000C240, symSize: 0x20 }
  - { offsetInCU: 0x21DDE, offset: 0x21DDE, size: 0x8, addend: 0x0, symName: __ZNKSt3__16vectorIcNS_9allocatorIcEEE4dataB8ue170006Ev, symObjAddr: 0xAF40, symBinAddr: 0x10000C260, symSize: 0x28 }
  - { offsetInCU: 0x21E04, offset: 0x21E04, size: 0x8, addend: 0x0, symName: __ZNKSt3__16vectorIcNS_9allocatorIcEEE4sizeB8ue170006Ev, symObjAddr: 0xAF68, symBinAddr: 0x10000C288, symSize: 0x20 }
  - { offsetInCU: 0x21E2A, offset: 0x21E2A, size: 0x8, addend: 0x0, symName: __ZNSt3__19allocatorIcE10deallocateB8ue170006EPcm, symObjAddr: 0xAF88, symBinAddr: 0x10000C2A8, symSize: 0x40 }
  - { offsetInCU: 0x21E6C, offset: 0x21E6C, size: 0x8, addend: 0x0, symName: __ZNSt3__117__compressed_pairIPcNS_9allocatorIcEEE6secondB8ue170006Ev, symObjAddr: 0xAFC8, symBinAddr: 0x10000C2E8, symSize: 0x24 }
  - { offsetInCU: 0x21E92, offset: 0x21E92, size: 0x8, addend: 0x0, symName: __ZNSt3__122__compressed_pair_elemINS_9allocatorIcEELi1ELb1EE5__getB8ue170006Ev, symObjAddr: 0xAFEC, symBinAddr: 0x10000C30C, symSize: 0x14 }
  - { offsetInCU: 0x21EB8, offset: 0x21EB8, size: 0x8, addend: 0x0, symName: __ZNKSt3__16vectorIcNS_9allocatorIcEEE9__end_capB8ue170006Ev, symObjAddr: 0xB000, symBinAddr: 0x10000C320, symSize: 0x28 }
  - { offsetInCU: 0x21EDE, offset: 0x21EDE, size: 0x8, addend: 0x0, symName: __ZNKSt3__117__compressed_pairIPcNS_9allocatorIcEEE5firstB8ue170006Ev, symObjAddr: 0xB028, symBinAddr: 0x10000C348, symSize: 0x24 }
  - { offsetInCU: 0x21F04, offset: 0x21F04, size: 0x8, addend: 0x0, symName: __ZNKSt3__122__compressed_pair_elemIPcLi0ELb0EE5__getB8ue170006Ev, symObjAddr: 0xB04C, symBinAddr: 0x10000C36C, symSize: 0x14 }
  - { offsetInCU: 0x21F2A, offset: 0x21F2A, size: 0x8, addend: 0x0, symName: __ZNSt3__19allocatorINS_11__tree_nodeINS_12__value_typeIi16MutationProposalEEPvEEE10deallocateB8ue170006EPS6_m, symObjAddr: 0xB060, symBinAddr: 0x10000C380, symSize: 0x44 }
  - { offsetInCU: 0x21F6C, offset: 0x21F6C, size: 0x8, addend: 0x0, symName: __ZNSt3__115__tree_iteratorINS_12__value_typeIi16MutationProposalEEPNS_11__tree_nodeIS3_PvEElEC2B8ue170006ES7_, symObjAddr: 0xB0A4, symBinAddr: 0x10000C3C4, symSize: 0x20 }
  - { offsetInCU: 0x21FA5, offset: 0x21FA5, size: 0x8, addend: 0x0, symName: __ZNSt3__14pairINS_15__tree_iteratorINS_12__value_typeIi16MutationProposalEEPNS_11__tree_nodeIS4_PvEElEEbEC2B8ue170006IS9_RbLS6_0EEEOT_OT0_, symObjAddr: 0xB0C4, symBinAddr: 0x10000C3E4, symSize: 0x38 }
  - { offsetInCU: 0x22003, offset: 0x22003, size: 0x8, addend: 0x0, symName: __ZNSt3__15tupleIJRKiEEC1B8ue170006INS_4_AndELi0EEES2_, symObjAddr: 0xB0FC, symBinAddr: 0x10000C41C, symSize: 0x34 }
  - { offsetInCU: 0x2204B, offset: 0x2204B, size: 0x8, addend: 0x0, symName: __ZNSt3__15tupleIJRKiEEC2B8ue170006INS_4_AndELi0EEES2_, symObjAddr: 0xB130, symBinAddr: 0x10000C450, symSize: 0x34 }
  - { offsetInCU: 0x22093, offset: 0x22093, size: 0x8, addend: 0x0, symName: __ZNSt3__112__tuple_implINS_15__tuple_indicesIJLm0EEEEJRKiEEC1B8ue170006IJLm0EEJS4_EJEJEJS4_EEENS1_IJXspT_EEEENS_13__tuple_typesIJDpT0_EEENS1_IJXspT1_EEEENS8_IJDpT2_EEEDpOT3_, symObjAddr: 0xB164, symBinAddr: 0x10000C484, symSize: 0x34 }
  - { offsetInCU: 0x22124, offset: 0x22124, size: 0x8, addend: 0x0, symName: __ZNSt3__112__tuple_implINS_15__tuple_indicesIJLm0EEEEJRKiEEC2B8ue170006IJLm0EEJS4_EJEJEJS4_EEENS1_IJXspT_EEEENS_13__tuple_typesIJDpT0_EEENS1_IJXspT1_EEEENS8_IJDpT2_EEEDpOT3_, symObjAddr: 0xB198, symBinAddr: 0x10000C4B8, symSize: 0x34 }
  - { offsetInCU: 0x221B5, offset: 0x221B5, size: 0x8, addend: 0x0, symName: __ZNSt3__112__tuple_leafILm0ERKiLb0EEC2B8ue170006IS2_vEEOT_, symObjAddr: 0xB1CC, symBinAddr: 0x10000C4EC, symSize: 0x20 }
  - { offsetInCU: 0x221F8, offset: 0x221F8, size: 0x8, addend: 0x0, symName: __ZNSt3__114pointer_traitsIPNS_12__value_typeIi16MutationProposalEEE10pointer_toB8ue170006ERS3_, symObjAddr: 0xB1EC, symBinAddr: 0x10000C50C, symSize: 0x14 }
  - { offsetInCU: 0x2221B, offset: 0x2221B, size: 0x8, addend: 0x0, symName: __ZNKSt3__115__tree_iteratorINS_12__value_typeIi16MutationProposalEEPNS_11__tree_nodeIS3_PvEElE8__get_npB8ue170006Ev, symObjAddr: 0xB200, symBinAddr: 0x10000C520, symSize: 0x18 }
  - { offsetInCU: 0x22241, offset: 0x22241, size: 0x8, addend: 0x0, symName: __ZNSt3__16vectorIcNS_9allocatorIcEEE9__end_capB8ue170006Ev, symObjAddr: 0xB218, symBinAddr: 0x10000C538, symSize: 0x28 }
  - { offsetInCU: 0x22267, offset: 0x22267, size: 0x8, addend: 0x0, symName: __ZNSt3__16vectorIcNS_9allocatorIcEEE22__construct_one_at_endB8ue170006IJRKcEEEvDpOT_, symObjAddr: 0xB240, symBinAddr: 0x10000C560, symSize: 0x90 }
  - { offsetInCU: 0x222B6, offset: 0x222B6, size: 0x8, addend: 0x0, symName: __ZNSt3__16vectorIcNS_9allocatorIcEEE21__push_back_slow_pathIRKcEEvOT_, symObjAddr: 0xB2D0, symBinAddr: 0x10000C5F0, symSize: 0xD8 }
  - { offsetInCU: 0x22314, offset: 0x22314, size: 0x8, addend: 0x0, symName: __ZNSt3__117__compressed_pairIPcNS_9allocatorIcEEE5firstB8ue170006Ev, symObjAddr: 0xB3A8, symBinAddr: 0x10000C6C8, symSize: 0x24 }
  - { offsetInCU: 0x2233A, offset: 0x2233A, size: 0x8, addend: 0x0, symName: __ZNSt3__122__compressed_pair_elemIPcLi0ELb0EE5__getB8ue170006Ev, symObjAddr: 0xB3CC, symBinAddr: 0x10000C6EC, symSize: 0x14 }
  - { offsetInCU: 0x2237B, offset: 0x2237B, size: 0x8, addend: 0x0, symName: __ZNSt3__16vectorIcNS_9allocatorIcEEE21_ConstructTransactionC1B8ue170006ERS3_m, symObjAddr: 0xB3E0, symBinAddr: 0x10000C700, symSize: 0x3C }
  - { offsetInCU: 0x223C3, offset: 0x223C3, size: 0x8, addend: 0x0, symName: __ZNSt3__116allocator_traitsINS_9allocatorIcEEE9constructB8ue170006IcJRKcEvEEvRS2_PT_DpOT0_, symObjAddr: 0xB41C, symBinAddr: 0x10000C73C, symSize: 0x34 }
  - { offsetInCU: 0x2241A, offset: 0x2241A, size: 0x8, addend: 0x0, symName: __ZNSt3__16vectorIcNS_9allocatorIcEEE21_ConstructTransactionD1B8ue170006Ev, symObjAddr: 0xB450, symBinAddr: 0x10000C770, symSize: 0x2C }
  - { offsetInCU: 0x22444, offset: 0x22444, size: 0x8, addend: 0x0, symName: __ZNSt3__16vectorIcNS_9allocatorIcEEE21_ConstructTransactionC2B8ue170006ERS3_m, symObjAddr: 0xB47C, symBinAddr: 0x10000C79C, symSize: 0x44 }
  - { offsetInCU: 0x2248C, offset: 0x2248C, size: 0x8, addend: 0x0, symName: __ZNSt3__19allocatorIcE9constructB8ue170006IcJRKcEEEvPT_DpOT0_, symObjAddr: 0xB4C0, symBinAddr: 0x10000C7E0, symSize: 0x28 }
  - { offsetInCU: 0x224E2, offset: 0x224E2, size: 0x8, addend: 0x0, symName: __ZNSt3__16vectorIcNS_9allocatorIcEEE21_ConstructTransactionD2B8ue170006Ev, symObjAddr: 0xB4E8, symBinAddr: 0x10000C808, symSize: 0x20 }
  - { offsetInCU: 0x2250C, offset: 0x2250C, size: 0x8, addend: 0x0, symName: __ZNKSt3__16vectorIcNS_9allocatorIcEEE11__recommendB8ue170006Em, symObjAddr: 0xB508, symBinAddr: 0x10000C828, symSize: 0xB4 }
  - { offsetInCU: 0x22561, offset: 0x22561, size: 0x8, addend: 0x0, symName: __ZNSt3__114__split_bufferIcRNS_9allocatorIcEEEC1EmmS3_, symObjAddr: 0xB5BC, symBinAddr: 0x10000C8DC, symSize: 0x44 }
  - { offsetInCU: 0x225B7, offset: 0x225B7, size: 0x8, addend: 0x0, symName: __ZNSt3__114__split_bufferIcRNS_9allocatorIcEEED1Ev, symObjAddr: 0xB710, symBinAddr: 0x10000CA30, symSize: 0x2C }
  - { offsetInCU: 0x225E3, offset: 0x225E3, size: 0x8, addend: 0x0, symName: __ZNKSt3__16vectorIcNS_9allocatorIcEEE8max_sizeEv, symObjAddr: 0xB73C, symBinAddr: 0x10000CA5C, symSize: 0x60 }
  - { offsetInCU: 0x2260B, offset: 0x2260B, size: 0x8, addend: 0x0, symName: __ZNKSt3__16vectorIcNS_9allocatorIcEEE20__throw_length_errorB8ue170006Ev, symObjAddr: 0xB79C, symBinAddr: 0x10000CABC, symSize: 0x1C }
  - { offsetInCU: 0x22631, offset: 0x22631, size: 0x8, addend: 0x0, symName: __ZNKSt3__16vectorIcNS_9allocatorIcEEE7__allocB8ue170006Ev, symObjAddr: 0xB7B8, symBinAddr: 0x10000CAD8, symSize: 0x28 }
  - { offsetInCU: 0x22657, offset: 0x22657, size: 0x8, addend: 0x0, symName: __ZNKSt3__117__compressed_pairIPcNS_9allocatorIcEEE6secondB8ue170006Ev, symObjAddr: 0xB7E0, symBinAddr: 0x10000CB00, symSize: 0x24 }
  - { offsetInCU: 0x2267D, offset: 0x2267D, size: 0x8, addend: 0x0, symName: __ZNSt3__114__split_bufferIcRNS_9allocatorIcEEEC2EmmS3_, symObjAddr: 0xB804, symBinAddr: 0x10000CB24, symSize: 0xD4 }
  - { offsetInCU: 0x226F0, offset: 0x226F0, size: 0x8, addend: 0x0, symName: __ZNSt3__117__compressed_pairIPcRNS_9allocatorIcEEEC1B8ue170006IDnS4_EEOT_OT0_, symObjAddr: 0xB8D8, symBinAddr: 0x10000CBF8, symSize: 0x3C }
  - { offsetInCU: 0x22748, offset: 0x22748, size: 0x8, addend: 0x0, symName: __ZNSt3__114__split_bufferIcRNS_9allocatorIcEEE7__allocB8ue170006Ev, symObjAddr: 0xB954, symBinAddr: 0x10000CC74, symSize: 0x28 }
  - { offsetInCU: 0x2276E, offset: 0x2276E, size: 0x8, addend: 0x0, symName: __ZNSt3__114__split_bufferIcRNS_9allocatorIcEEE9__end_capB8ue170006Ev, symObjAddr: 0xB97C, symBinAddr: 0x10000CC9C, symSize: 0x28 }
  - { offsetInCU: 0x22794, offset: 0x22794, size: 0x8, addend: 0x0, symName: __ZNSt3__117__compressed_pairIPcRNS_9allocatorIcEEEC2B8ue170006IDnS4_EEOT_OT0_, symObjAddr: 0xB9A4, symBinAddr: 0x10000CCC4, symSize: 0x48 }
  - { offsetInCU: 0x227EC, offset: 0x227EC, size: 0x8, addend: 0x0, symName: __ZNSt3__122__compressed_pair_elemIRNS_9allocatorIcEELi1ELb0EEC2B8ue170006IS3_vEEOT_, symObjAddr: 0xB9EC, symBinAddr: 0x10000CD0C, symSize: 0x20 }
  - { offsetInCU: 0x2282E, offset: 0x2282E, size: 0x8, addend: 0x0, symName: __ZNSt3__19allocatorIcE8allocateB8ue170006Em, symObjAddr: 0xBA0C, symBinAddr: 0x10000CD2C, symSize: 0x58 }
  - { offsetInCU: 0x22862, offset: 0x22862, size: 0x8, addend: 0x0, symName: __ZNSt3__117__compressed_pairIPcRNS_9allocatorIcEEE6secondB8ue170006Ev, symObjAddr: 0xBA64, symBinAddr: 0x10000CD84, symSize: 0x28 }
  - { offsetInCU: 0x22888, offset: 0x22888, size: 0x8, addend: 0x0, symName: __ZNSt3__122__compressed_pair_elemIRNS_9allocatorIcEELi1ELb0EE5__getB8ue170006Ev, symObjAddr: 0xBA8C, symBinAddr: 0x10000CDAC, symSize: 0x18 }
  - { offsetInCU: 0x228AE, offset: 0x228AE, size: 0x8, addend: 0x0, symName: __ZNSt3__117__compressed_pairIPcRNS_9allocatorIcEEE5firstB8ue170006Ev, symObjAddr: 0xBAA4, symBinAddr: 0x10000CDC4, symSize: 0x24 }
  - { offsetInCU: 0x228D4, offset: 0x228D4, size: 0x8, addend: 0x0, symName: __ZNSt3__116reverse_iteratorIPcEC1B8ue170006ES1_, symObjAddr: 0xBB40, symBinAddr: 0x10000CE60, symSize: 0x34 }
  - { offsetInCU: 0x2290C, offset: 0x2290C, size: 0x8, addend: 0x0, symName: __ZNKSt3__116reverse_iteratorIPcE4baseB8ue170006Ev, symObjAddr: 0xBB74, symBinAddr: 0x10000CE94, symSize: 0x18 }
  - { offsetInCU: 0x22932, offset: 0x22932, size: 0x8, addend: 0x0, symName: __ZNKSt3__16vectorIcNS_9allocatorIcEEE14__annotate_newB8ue170006Em, symObjAddr: 0xBBC8, symBinAddr: 0x10000CEE8, symSize: 0xAC }
  - { offsetInCU: 0x2298D, offset: 0x2298D, size: 0x8, addend: 0x0, symName: __ZNKSt3__111__move_loopINS_17_ClassicAlgPolicyEEclB8ue170006INS_16reverse_iteratorIPcEES6_S6_EENS_4pairIT_T1_EES8_T0_S9_, symObjAddr: 0xBF64, symBinAddr: 0x10000D284, symSize: 0xA0 }
  - { offsetInCU: 0x229FE, offset: 0x229FE, size: 0x8, addend: 0x0, symName: __ZNSt3__18_IterOpsINS_17_ClassicAlgPolicyEE11__iter_moveB8ue170006IRNS_16reverse_iteratorIPcEEEENS_9enable_ifIXsr12is_referenceIDTdeclsr3stdE7declvalIRT_EEEEE5valueEDTclsr3stdE4movedeclsr3stdE7declvalISA_EEEEE4typeEOS9_, symObjAddr: 0xC198, symBinAddr: 0x10000D4B8, symSize: 0x28 }
  - { offsetInCU: 0x22A2A, offset: 0x22A2A, size: 0x8, addend: 0x0, symName: __ZNKSt3__116reverse_iteratorIPcEdeB8ue170006Ev, symObjAddr: 0xC1C0, symBinAddr: 0x10000D4E0, symSize: 0x28 }
  - { offsetInCU: 0x22A5E, offset: 0x22A5E, size: 0x8, addend: 0x0, symName: __ZNSt3__116reverse_iteratorIPcEppB8ue170006Ev, symObjAddr: 0xC1E8, symBinAddr: 0x10000D508, symSize: 0x20 }
  - { offsetInCU: 0x22A84, offset: 0x22A84, size: 0x8, addend: 0x0, symName: __ZNSt3__18_IterOpsINS_17_ClassicAlgPolicyEE25__validate_iter_referenceB8ue170006IRNS_16reverse_iteratorIPcEEEEvv, symObjAddr: 0xC208, symBinAddr: 0x10000D528, symSize: 0x4 }
  - { offsetInCU: 0x22AA2, offset: 0x22AA2, size: 0x8, addend: 0x0, symName: __ZNSt3__118__unwrap_iter_implINS_16reverse_iteratorIPcEELb0EE8__unwrapB8ue170006ES3_, symObjAddr: 0xC20C, symBinAddr: 0x10000D52C, symSize: 0x24 }
  - { offsetInCU: 0x22ACB, offset: 0x22ACB, size: 0x8, addend: 0x0, symName: __ZNSt3__14pairINS_16reverse_iteratorIPcEES3_EC1B8ue170006IS3_S3_LPv0EEEOT_OT0_, symObjAddr: 0xC230, symBinAddr: 0x10000D550, symSize: 0x3C }
  - { offsetInCU: 0x22B29, offset: 0x22B29, size: 0x8, addend: 0x0, symName: __ZNSt3__14pairINS_16reverse_iteratorIPcEES3_EC2B8ue170006IS3_S3_LPv0EEEOT_OT0_, symObjAddr: 0xC26C, symBinAddr: 0x10000D58C, symSize: 0x34 }
  - { offsetInCU: 0x22B87, offset: 0x22B87, size: 0x8, addend: 0x0, symName: __ZNSt3__118__unwrap_iter_implINS_16reverse_iteratorIPcEELb0EE8__rewrapB8ue170006ES3_S3_, symObjAddr: 0xC2A0, symBinAddr: 0x10000D5C0, symSize: 0x2C }
  - { offsetInCU: 0x22BB4, offset: 0x22BB4, size: 0x8, addend: 0x0, symName: __ZNSt3__116reverse_iteratorIPcEC2B8ue170006ES1_, symObjAddr: 0xC2CC, symBinAddr: 0x10000D5EC, symSize: 0x28 }
  - { offsetInCU: 0x22BEC, offset: 0x22BEC, size: 0x8, addend: 0x0, symName: __ZNSt3__114__split_bufferIcRNS_9allocatorIcEEED2Ev, symObjAddr: 0xC2F4, symBinAddr: 0x10000D614, symSize: 0x8C }
  - { offsetInCU: 0x22C18, offset: 0x22C18, size: 0x8, addend: 0x0, symName: __ZNSt3__114__split_bufferIcRNS_9allocatorIcEEE5clearB8ue170006Ev, symObjAddr: 0xC380, symBinAddr: 0x10000D6A0, symSize: 0x28 }
  - { offsetInCU: 0x22C3E, offset: 0x22C3E, size: 0x8, addend: 0x0, symName: __ZNKSt3__114__split_bufferIcRNS_9allocatorIcEEE8capacityB8ue170006Ev, symObjAddr: 0xC3A8, symBinAddr: 0x10000D6C8, symSize: 0x38 }
  - { offsetInCU: 0x22C64, offset: 0x22C64, size: 0x8, addend: 0x0, symName: __ZNSt3__114__split_bufferIcRNS_9allocatorIcEEE17__destruct_at_endB8ue170006EPc, symObjAddr: 0xC3E0, symBinAddr: 0x10000D700, symSize: 0x2C }
  - { offsetInCU: 0x22C98, offset: 0x22C98, size: 0x8, addend: 0x0, symName: __ZNSt3__114__split_bufferIcRNS_9allocatorIcEEE17__destruct_at_endB8ue170006EPcNS_17integral_constantIbLb0EEE, symObjAddr: 0xC40C, symBinAddr: 0x10000D72C, symSize: 0x80 }
  - { offsetInCU: 0x22CD8, offset: 0x22CD8, size: 0x8, addend: 0x0, symName: __ZNKSt3__114__split_bufferIcRNS_9allocatorIcEEE9__end_capB8ue170006Ev, symObjAddr: 0xC48C, symBinAddr: 0x10000D7AC, symSize: 0x28 }
  - { offsetInCU: 0x22CFE, offset: 0x22CFE, size: 0x8, addend: 0x0, symName: __ZNKSt3__117__compressed_pairIPcRNS_9allocatorIcEEE5firstB8ue170006Ev, symObjAddr: 0xC4B4, symBinAddr: 0x10000D7D4, symSize: 0x24 }
  - { offsetInCU: 0x22D24, offset: 0x22D24, size: 0x8, addend: 0x0, symName: __ZNSt3__13mapINS_4pairIiiEE8SamEntry16ComparePositionsNS_9allocatorINS1_IKS2_S3_EEEEEC2B8ue170006Ev, symObjAddr: 0xC4D8, symBinAddr: 0x10000D7F8, symSize: 0x40 }
  - { offsetInCU: 0x22D4E, offset: 0x22D4E, size: 0x8, addend: 0x0, symName: __ZNSt3__119__map_value_compareINS_4pairIiiEENS_12__value_typeIS2_8SamEntryEE16ComparePositionsLb1EEC1B8ue170006ES6_, symObjAddr: 0xC518, symBinAddr: 0x10000D838, symSize: 0x2C }
  - { offsetInCU: 0x22D87, offset: 0x22D87, size: 0x8, addend: 0x0, symName: __ZNSt3__16__treeINS_12__value_typeINS_4pairIiiEE8SamEntryEENS_19__map_value_compareIS3_S5_16ComparePositionsLb1EEENS_9allocatorIS5_EEEC1ERKS8_, symObjAddr: 0xC544, symBinAddr: 0x10000D864, symSize: 0x34 }
  - { offsetInCU: 0x22DC2, offset: 0x22DC2, size: 0x8, addend: 0x0, symName: __ZNSt3__119__map_value_compareINS_4pairIiiEENS_12__value_typeIS2_8SamEntryEE16ComparePositionsLb1EEC2B8ue170006ES6_, symObjAddr: 0xC578, symBinAddr: 0x10000D898, symSize: 0x14 }
  - { offsetInCU: 0x22DFB, offset: 0x22DFB, size: 0x8, addend: 0x0, symName: __ZNSt3__16__treeINS_12__value_typeINS_4pairIiiEE8SamEntryEENS_19__map_value_compareIS3_S5_16ComparePositionsLb1EEENS_9allocatorIS5_EEEC2ERKS8_, symObjAddr: 0xC58C, symBinAddr: 0x10000D8AC, symSize: 0x7C }
  - { offsetInCU: 0x22E36, offset: 0x22E36, size: 0x8, addend: 0x0, symName: __ZNSt3__117__compressed_pairINS_15__tree_end_nodeIPNS_16__tree_node_baseIPvEEEENS_9allocatorINS_11__tree_nodeINS_12__value_typeINS_4pairIiiEE8SamEntryEES3_EEEEEC1B8ue170006ILb1EvEEv, symObjAddr: 0xC608, symBinAddr: 0x10000D928, symSize: 0x2C }
  - { offsetInCU: 0x22E71, offset: 0x22E71, size: 0x8, addend: 0x0, symName: __ZNSt3__117__compressed_pairImNS_19__map_value_compareINS_4pairIiiEENS_12__value_typeIS3_8SamEntryEE16ComparePositionsLb1EEEEC1B8ue170006IiRKS8_EEOT_OT0_, symObjAddr: 0xC634, symBinAddr: 0x10000D954, symSize: 0x3C }
  - { offsetInCU: 0x22EC9, offset: 0x22EC9, size: 0x8, addend: 0x0, symName: __ZNSt3__16__treeINS_12__value_typeINS_4pairIiiEE8SamEntryEENS_19__map_value_compareIS3_S5_16ComparePositionsLb1EEENS_9allocatorIS5_EEE10__end_nodeB8ue170006Ev, symObjAddr: 0xC670, symBinAddr: 0x10000D990, symSize: 0x2C }
  - { offsetInCU: 0x22EEF, offset: 0x22EEF, size: 0x8, addend: 0x0, symName: __ZNSt3__16__treeINS_12__value_typeINS_4pairIiiEE8SamEntryEENS_19__map_value_compareIS3_S5_16ComparePositionsLb1EEENS_9allocatorIS5_EEE12__begin_nodeB8ue170006Ev, symObjAddr: 0xC69C, symBinAddr: 0x10000D9BC, symSize: 0x14 }
  - { offsetInCU: 0x22F15, offset: 0x22F15, size: 0x8, addend: 0x0, symName: __ZNSt3__117__compressed_pairINS_15__tree_end_nodeIPNS_16__tree_node_baseIPvEEEENS_9allocatorINS_11__tree_nodeINS_12__value_typeINS_4pairIiiEE8SamEntryEES3_EEEEEC2B8ue170006ILb1EvEEv, symObjAddr: 0xC6B0, symBinAddr: 0x10000D9D0, symSize: 0x34 }
  - { offsetInCU: 0x22F4A, offset: 0x22F4A, size: 0x8, addend: 0x0, symName: __ZNSt3__122__compressed_pair_elemINS_15__tree_end_nodeIPNS_16__tree_node_baseIPvEEEELi0ELb0EEC2B8ue170006ENS_16__value_init_tagE, symObjAddr: 0xC6E4, symBinAddr: 0x10000DA04, symSize: 0x2C }
  - { offsetInCU: 0x22F7E, offset: 0x22F7E, size: 0x8, addend: 0x0, symName: __ZNSt3__122__compressed_pair_elemINS_9allocatorINS_11__tree_nodeINS_12__value_typeINS_4pairIiiEE8SamEntryEEPvEEEELi1ELb1EEC2B8ue170006ENS_16__value_init_tagE, symObjAddr: 0xC710, symBinAddr: 0x10000DA30, symSize: 0x2C }
  - { offsetInCU: 0x22FB2, offset: 0x22FB2, size: 0x8, addend: 0x0, symName: __ZNSt3__115__tree_end_nodeIPNS_16__tree_node_baseIPvEEEC1B8ue170006Ev, symObjAddr: 0xC73C, symBinAddr: 0x10000DA5C, symSize: 0x2C }
  - { offsetInCU: 0x22FDC, offset: 0x22FDC, size: 0x8, addend: 0x0, symName: __ZNSt3__115__tree_end_nodeIPNS_16__tree_node_baseIPvEEEC2B8ue170006Ev, symObjAddr: 0xC768, symBinAddr: 0x10000DA88, symSize: 0x18 }
  - { offsetInCU: 0x23006, offset: 0x23006, size: 0x8, addend: 0x0, symName: __ZNSt3__19allocatorINS_11__tree_nodeINS_12__value_typeINS_4pairIiiEE8SamEntryEEPvEEEC2B8ue170006Ev, symObjAddr: 0xC780, symBinAddr: 0x10000DAA0, symSize: 0x2C }
  - { offsetInCU: 0x23030, offset: 0x23030, size: 0x8, addend: 0x0, symName: __ZNSt3__116__non_trivial_ifILb1ENS_9allocatorINS_11__tree_nodeINS_12__value_typeINS_4pairIiiEE8SamEntryEEPvEEEEEC2B8ue170006Ev, symObjAddr: 0xC7AC, symBinAddr: 0x10000DACC, symSize: 0x14 }
  - { offsetInCU: 0x2305A, offset: 0x2305A, size: 0x8, addend: 0x0, symName: __ZNSt3__117__compressed_pairImNS_19__map_value_compareINS_4pairIiiEENS_12__value_typeIS3_8SamEntryEE16ComparePositionsLb1EEEEC2B8ue170006IiRKS8_EEOT_OT0_, symObjAddr: 0xC7C0, symBinAddr: 0x10000DAE0, symSize: 0x44 }
  - { offsetInCU: 0x230B2, offset: 0x230B2, size: 0x8, addend: 0x0, symName: __ZNSt3__122__compressed_pair_elemImLi0ELb0EEC2B8ue170006IivEEOT_, symObjAddr: 0xC804, symBinAddr: 0x10000DB24, symSize: 0x24 }
  - { offsetInCU: 0x230F4, offset: 0x230F4, size: 0x8, addend: 0x0, symName: __ZNSt3__122__compressed_pair_elemINS_19__map_value_compareINS_4pairIiiEENS_12__value_typeIS3_8SamEntryEE16ComparePositionsLb1EEELi1ELb1EEC2B8ue170006IRKS8_vEEOT_, symObjAddr: 0xC828, symBinAddr: 0x10000DB48, symSize: 0x18 }
  - { offsetInCU: 0x23136, offset: 0x23136, size: 0x8, addend: 0x0, symName: __ZNSt3__117__compressed_pairINS_15__tree_end_nodeIPNS_16__tree_node_baseIPvEEEENS_9allocatorINS_11__tree_nodeINS_12__value_typeINS_4pairIiiEE8SamEntryEES3_EEEEE5firstB8ue170006Ev, symObjAddr: 0xC840, symBinAddr: 0x10000DB60, symSize: 0x24 }
  - { offsetInCU: 0x2315C, offset: 0x2315C, size: 0x8, addend: 0x0, symName: __ZNSt3__13mapINS_4pairIiiEE8SamEntry16ComparePositionsNS_9allocatorINS1_IKS2_S3_EEEEED2B8ue170006Ev, symObjAddr: 0xC864, symBinAddr: 0x10000DB84, symSize: 0x2C }
  - { offsetInCU: 0x23186, offset: 0x23186, size: 0x8, addend: 0x0, symName: __ZNSt3__16__treeINS_12__value_typeINS_4pairIiiEE8SamEntryEENS_19__map_value_compareIS3_S5_16ComparePositionsLb1EEENS_9allocatorIS5_EEED1Ev, symObjAddr: 0xC890, symBinAddr: 0x10000DBB0, symSize: 0x2C }
  - { offsetInCU: 0x231B2, offset: 0x231B2, size: 0x8, addend: 0x0, symName: __ZNSt3__16__treeINS_12__value_typeINS_4pairIiiEE8SamEntryEENS_19__map_value_compareIS3_S5_16ComparePositionsLb1EEENS_9allocatorIS5_EEED2Ev, symObjAddr: 0xC8BC, symBinAddr: 0x10000DBDC, symSize: 0x38 }
  - { offsetInCU: 0x231DE, offset: 0x231DE, size: 0x8, addend: 0x0, symName: __ZNSt3__16__treeINS_12__value_typeINS_4pairIiiEE8SamEntryEENS_19__map_value_compareIS3_S5_16ComparePositionsLb1EEENS_9allocatorIS5_EEE7destroyEPNS_11__tree_nodeIS5_PvEE, symObjAddr: 0xC8F4, symBinAddr: 0x10000DC14, symSize: 0xAC }
  - { offsetInCU: 0x2322A, offset: 0x2322A, size: 0x8, addend: 0x0, symName: __ZNKSt3__16__treeINS_12__value_typeINS_4pairIiiEE8SamEntryEENS_19__map_value_compareIS3_S5_16ComparePositionsLb1EEENS_9allocatorIS5_EEE6__rootB8ue170006Ev, symObjAddr: 0xC9A0, symBinAddr: 0x10000DCC0, symSize: 0x28 }
  - { offsetInCU: 0x23250, offset: 0x23250, size: 0x8, addend: 0x0, symName: __ZNSt3__16__treeINS_12__value_typeINS_4pairIiiEE8SamEntryEENS_19__map_value_compareIS3_S5_16ComparePositionsLb1EEENS_9allocatorIS5_EEE12__node_allocB8ue170006Ev, symObjAddr: 0xC9C8, symBinAddr: 0x10000DCE8, symSize: 0x28 }
  - { offsetInCU: 0x23276, offset: 0x23276, size: 0x8, addend: 0x0, symName: __ZNSt3__116allocator_traitsINS_9allocatorINS_11__tree_nodeINS_12__value_typeINS_4pairIiiEE8SamEntryEEPvEEEEE7destroyB8ue170006INS4_IKS5_S6_EEvvEEvRSA_PT_, symObjAddr: 0xC9F0, symBinAddr: 0x10000DD10, symSize: 0x28 }
  - { offsetInCU: 0x232B0, offset: 0x232B0, size: 0x8, addend: 0x0, symName: __ZNSt3__122__tree_key_value_typesINS_12__value_typeINS_4pairIiiEE8SamEntryEEE9__get_ptrB8ue170006ERS5_, symObjAddr: 0xCA18, symBinAddr: 0x10000DD38, symSize: 0x24 }
  - { offsetInCU: 0x232D4, offset: 0x232D4, size: 0x8, addend: 0x0, symName: __ZNSt3__116allocator_traitsINS_9allocatorINS_11__tree_nodeINS_12__value_typeINS_4pairIiiEE8SamEntryEEPvEEEEE10deallocateB8ue170006ERSA_PS9_m, symObjAddr: 0xCA3C, symBinAddr: 0x10000DD5C, symSize: 0x34 }
  - { offsetInCU: 0x23316, offset: 0x23316, size: 0x8, addend: 0x0, symName: __ZNSt3__117__compressed_pairINS_15__tree_end_nodeIPNS_16__tree_node_baseIPvEEEENS_9allocatorINS_11__tree_nodeINS_12__value_typeINS_4pairIiiEE8SamEntryEES3_EEEEE6secondB8ue170006Ev, symObjAddr: 0xCA70, symBinAddr: 0x10000DD90, symSize: 0x24 }
  - { offsetInCU: 0x2333C, offset: 0x2333C, size: 0x8, addend: 0x0, symName: __ZNSt3__122__compressed_pair_elemINS_9allocatorINS_11__tree_nodeINS_12__value_typeINS_4pairIiiEE8SamEntryEEPvEEEELi1ELb1EE5__getB8ue170006Ev, symObjAddr: 0xCA94, symBinAddr: 0x10000DDB4, symSize: 0x14 }
  - { offsetInCU: 0x23362, offset: 0x23362, size: 0x8, addend: 0x0, symName: __ZNSt3__14pairIKNS0_IiiEE8SamEntryED1Ev, symObjAddr: 0xCAA8, symBinAddr: 0x10000DDC8, symSize: 0x2C }
  - { offsetInCU: 0x2338E, offset: 0x2338E, size: 0x8, addend: 0x0, symName: __ZNSt3__14pairIKNS0_IiiEE8SamEntryED2Ev, symObjAddr: 0xCAD4, symBinAddr: 0x10000DDF4, symSize: 0x30 }
  - { offsetInCU: 0x233BA, offset: 0x233BA, size: 0x8, addend: 0x0, symName: __ZNSt3__112__value_typeINS_4pairIiiEE8SamEntryE11__get_valueB8ue170006Ev, symObjAddr: 0xCB04, symBinAddr: 0x10000DE24, symSize: 0x14 }
  - { offsetInCU: 0x233E0, offset: 0x233E0, size: 0x8, addend: 0x0, symName: __ZNSt3__19allocatorINS_11__tree_nodeINS_12__value_typeINS_4pairIiiEE8SamEntryEEPvEEE10deallocateB8ue170006EPS8_m, symObjAddr: 0xCB18, symBinAddr: 0x10000DE38, symSize: 0x44 }
  - { offsetInCU: 0x23422, offset: 0x23422, size: 0x8, addend: 0x0, symName: __ZNKSt3__16__treeINS_12__value_typeINS_4pairIiiEE8SamEntryEENS_19__map_value_compareIS3_S5_16ComparePositionsLb1EEENS_9allocatorIS5_EEE10__end_nodeB8ue170006Ev, symObjAddr: 0xCB5C, symBinAddr: 0x10000DE7C, symSize: 0x2C }
  - { offsetInCU: 0x23448, offset: 0x23448, size: 0x8, addend: 0x0, symName: __ZNKSt3__117__compressed_pairINS_15__tree_end_nodeIPNS_16__tree_node_baseIPvEEEENS_9allocatorINS_11__tree_nodeINS_12__value_typeINS_4pairIiiEE8SamEntryEES3_EEEEE5firstB8ue170006Ev, symObjAddr: 0xCB88, symBinAddr: 0x10000DEA8, symSize: 0x24 }
  - { offsetInCU: 0x2346E, offset: 0x2346E, size: 0x8, addend: 0x0, symName: __ZNKSt3__16__treeINS_12__value_typeINS_4pairIiiEE8SamEntryEENS_19__map_value_compareIS3_S5_16ComparePositionsLb1EEENS_9allocatorIS5_EEE5beginB8ue170006Ev, symObjAddr: 0xCBAC, symBinAddr: 0x10000DECC, symSize: 0x34 }
  - { offsetInCU: 0x23494, offset: 0x23494, size: 0x8, addend: 0x0, symName: __ZNSt3__120__map_const_iteratorINS_21__tree_const_iteratorINS_12__value_typeINS_4pairIiiEE8SamEntryEEPNS_11__tree_nodeIS6_PvEElEEEC1B8ue170006ESB_, symObjAddr: 0xCBE0, symBinAddr: 0x10000DF00, symSize: 0x34 }
  - { offsetInCU: 0x234CD, offset: 0x234CD, size: 0x8, addend: 0x0, symName: __ZNKSt3__16__treeINS_12__value_typeINS_4pairIiiEE8SamEntryEENS_19__map_value_compareIS3_S5_16ComparePositionsLb1EEENS_9allocatorIS5_EEE12__begin_nodeB8ue170006Ev, symObjAddr: 0xCC14, symBinAddr: 0x10000DF34, symSize: 0x14 }
  - { offsetInCU: 0x234F3, offset: 0x234F3, size: 0x8, addend: 0x0, symName: __ZNSt3__121__tree_const_iteratorINS_12__value_typeINS_4pairIiiEE8SamEntryEEPNS_11__tree_nodeIS5_PvEElEC1B8ue170006EPNS_15__tree_end_nodeIPNS_16__tree_node_baseIS7_EEEE, symObjAddr: 0xCC28, symBinAddr: 0x10000DF48, symSize: 0x34 }
  - { offsetInCU: 0x2352C, offset: 0x2352C, size: 0x8, addend: 0x0, symName: __ZNSt3__121__tree_const_iteratorINS_12__value_typeINS_4pairIiiEE8SamEntryEEPNS_11__tree_nodeIS5_PvEElEC2B8ue170006EPNS_15__tree_end_nodeIPNS_16__tree_node_baseIS7_EEEE, symObjAddr: 0xCC5C, symBinAddr: 0x10000DF7C, symSize: 0x20 }
  - { offsetInCU: 0x23565, offset: 0x23565, size: 0x8, addend: 0x0, symName: __ZNSt3__120__map_const_iteratorINS_21__tree_const_iteratorINS_12__value_typeINS_4pairIiiEE8SamEntryEEPNS_11__tree_nodeIS6_PvEElEEEC2B8ue170006ESB_, symObjAddr: 0xCC7C, symBinAddr: 0x10000DF9C, symSize: 0x20 }
  - { offsetInCU: 0x2359E, offset: 0x2359E, size: 0x8, addend: 0x0, symName: __ZNKSt3__16__treeINS_12__value_typeINS_4pairIiiEE8SamEntryEENS_19__map_value_compareIS3_S5_16ComparePositionsLb1EEENS_9allocatorIS5_EEE3endB8ue170006Ev, symObjAddr: 0xCC9C, symBinAddr: 0x10000DFBC, symSize: 0x34 }
  - { offsetInCU: 0x235C4, offset: 0x235C4, size: 0x8, addend: 0x0, symName: __ZNSt3__121__tree_const_iteratorINS_12__value_typeINS_4pairIiiEE8SamEntryEEPNS_11__tree_nodeIS5_PvEElEppB8ue170006Ev, symObjAddr: 0xCD34, symBinAddr: 0x10000E054, symSize: 0x38 }
  - { offsetInCU: 0x235EA, offset: 0x235EA, size: 0x8, addend: 0x0, symName: __ZNKSt3__121__tree_const_iteratorINS_12__value_typeINS_4pairIiiEE8SamEntryEEPNS_11__tree_nodeIS5_PvEElEptB8ue170006Ev, symObjAddr: 0xCD6C, symBinAddr: 0x10000E08C, symSize: 0x2C }
  - { offsetInCU: 0x23610, offset: 0x23610, size: 0x8, addend: 0x0, symName: __ZNKSt3__112__value_typeINS_4pairIiiEE8SamEntryE11__get_valueB8ue170006Ev, symObjAddr: 0xCD98, symBinAddr: 0x10000E0B8, symSize: 0x14 }
  - { offsetInCU: 0x23636, offset: 0x23636, size: 0x8, addend: 0x0, symName: __ZNSt3__114pointer_traitsIPKNS_12__value_typeINS_4pairIiiEE8SamEntryEEE10pointer_toB8ue170006ERS6_, symObjAddr: 0xCDAC, symBinAddr: 0x10000E0CC, symSize: 0x14 }
  - { offsetInCU: 0x23659, offset: 0x23659, size: 0x8, addend: 0x0, symName: __ZNKSt3__121__tree_const_iteratorINS_12__value_typeINS_4pairIiiEE8SamEntryEEPNS_11__tree_nodeIS5_PvEElE8__get_npB8ue170006Ev, symObjAddr: 0xCDC0, symBinAddr: 0x10000E0E0, symSize: 0x18 }
  - { offsetInCU: 0x2367F, offset: 0x2367F, size: 0x8, addend: 0x0, symName: __ZNSt3__16__treeINS_12__value_typeINS_4pairIiiEE8SamEntryEENS_19__map_value_compareIS3_S5_16ComparePositionsLb1EEENS_9allocatorIS5_EEE15__insert_uniqueB8ue170006ERKNS2_IKS3_S4_EE, symObjAddr: 0xCDD8, symBinAddr: 0x10000E0F8, symSize: 0x50 }
  - { offsetInCU: 0x236B4, offset: 0x236B4, size: 0x8, addend: 0x0, symName: __ZNSt3__14pairINS_14__map_iteratorINS_15__tree_iteratorINS_12__value_typeINS0_IiiEE8SamEntryEEPNS_11__tree_nodeIS6_PvEElEEEEbEC1B8ue170006ISB_bLS8_0EEEONS0_IT_T0_EE, symObjAddr: 0xCE28, symBinAddr: 0x10000E148, symSize: 0x34 }
  - { offsetInCU: 0x23705, offset: 0x23705, size: 0x8, addend: 0x0, symName: __ZNSt3__16__treeINS_12__value_typeINS_4pairIiiEE8SamEntryEENS_19__map_value_compareIS3_S5_16ComparePositionsLb1EEENS_9allocatorIS5_EEE25__emplace_unique_key_argsIS3_JRKNS2_IKS3_S4_EEEEENS2_INS_15__tree_iteratorIS5_PNS_11__tree_nodeIS5_PvEElEEbEERKT_DpOT0_, symObjAddr: 0xCE5C, symBinAddr: 0x10000E17C, symSize: 0xF0 }
  - { offsetInCU: 0x237B1, offset: 0x237B1, size: 0x8, addend: 0x0, symName: __ZNSt3__122__tree_key_value_typesINS_12__value_typeINS_4pairIiiEE8SamEntryEEE9__get_keyB8ue170006IKNS2_IKS3_S4_EEEENS_9enable_ifIXsr17__is_same_uncvrefIT_S9_EE5valueERS8_E4typeERSC_, symObjAddr: 0xCF4C, symBinAddr: 0x10000E26C, symSize: 0x14 }
  - { offsetInCU: 0x237DE, offset: 0x237DE, size: 0x8, addend: 0x0, symName: __ZNSt3__16__treeINS_12__value_typeINS_4pairIiiEE8SamEntryEENS_19__map_value_compareIS3_S5_16ComparePositionsLb1EEENS_9allocatorIS5_EEE12__find_equalIS3_EERPNS_16__tree_node_baseIPvEERPNS_15__tree_end_nodeISG_EERKT_, symObjAddr: 0xCF60, symBinAddr: 0x10000E280, symSize: 0x184 }
  - { offsetInCU: 0x2384B, offset: 0x2384B, size: 0x8, addend: 0x0, symName: __ZNSt3__16__treeINS_12__value_typeINS_4pairIiiEE8SamEntryEENS_19__map_value_compareIS3_S5_16ComparePositionsLb1EEENS_9allocatorIS5_EEE16__construct_nodeIJRKNS2_IKS3_S4_EEEEENS_10unique_ptrINS_11__tree_nodeIS5_PvEENS_22__tree_node_destructorINS9_ISK_EEEEEEDpOT_, symObjAddr: 0xD0E4, symBinAddr: 0x10000E404, symSize: 0x110 }
  - { offsetInCU: 0x238AC, offset: 0x238AC, size: 0x8, addend: 0x0, symName: __ZNSt3__16__treeINS_12__value_typeINS_4pairIiiEE8SamEntryEENS_19__map_value_compareIS3_S5_16ComparePositionsLb1EEENS_9allocatorIS5_EEE16__insert_node_atEPNS_15__tree_end_nodeIPNS_16__tree_node_baseIPvEEEERSG_SG_, symObjAddr: 0xD1F4, symBinAddr: 0x10000E514, symSize: 0xCC }
  - { offsetInCU: 0x23901, offset: 0x23901, size: 0x8, addend: 0x0, symName: __ZNKSt3__110unique_ptrINS_11__tree_nodeINS_12__value_typeINS_4pairIiiEE8SamEntryEEPvEENS_22__tree_node_destructorINS_9allocatorIS8_EEEEE3getB8ue170006Ev, symObjAddr: 0xD2C0, symBinAddr: 0x10000E5E0, symSize: 0x28 }
  - { offsetInCU: 0x23927, offset: 0x23927, size: 0x8, addend: 0x0, symName: __ZNSt3__110unique_ptrINS_11__tree_nodeINS_12__value_typeINS_4pairIiiEE8SamEntryEEPvEENS_22__tree_node_destructorINS_9allocatorIS8_EEEEE7releaseB8ue170006Ev, symObjAddr: 0xD2E8, symBinAddr: 0x10000E608, symSize: 0x44 }
  - { offsetInCU: 0x2395C, offset: 0x2395C, size: 0x8, addend: 0x0, symName: __ZNSt3__110unique_ptrINS_11__tree_nodeINS_12__value_typeINS_4pairIiiEE8SamEntryEEPvEENS_22__tree_node_destructorINS_9allocatorIS8_EEEEED1B8ue170006Ev, symObjAddr: 0xD32C, symBinAddr: 0x10000E64C, symSize: 0x2C }
  - { offsetInCU: 0x23986, offset: 0x23986, size: 0x8, addend: 0x0, symName: __ZNSt3__115__tree_iteratorINS_12__value_typeINS_4pairIiiEE8SamEntryEEPNS_11__tree_nodeIS5_PvEElEC1B8ue170006ES9_, symObjAddr: 0xD358, symBinAddr: 0x10000E678, symSize: 0x34 }
  - { offsetInCU: 0x239C5, offset: 0x239C5, size: 0x8, addend: 0x0, symName: __ZNSt3__14pairINS_15__tree_iteratorINS_12__value_typeINS0_IiiEE8SamEntryEEPNS_11__tree_nodeIS5_PvEElEEbEC1B8ue170006ISA_RbLS7_0EEEOT_OT0_, symObjAddr: 0xD38C, symBinAddr: 0x10000E6AC, symSize: 0x3C }
  - { offsetInCU: 0x23A23, offset: 0x23A23, size: 0x8, addend: 0x0, symName: __ZNKSt3__16__treeINS_12__value_typeINS_4pairIiiEE8SamEntryEENS_19__map_value_compareIS3_S5_16ComparePositionsLb1EEENS_9allocatorIS5_EEE10__root_ptrB8ue170006Ev, symObjAddr: 0xD3C8, symBinAddr: 0x10000E6E8, symSize: 0x24 }
  - { offsetInCU: 0x23A49, offset: 0x23A49, size: 0x8, addend: 0x0, symName: __ZNSt3__16__treeINS_12__value_typeINS_4pairIiiEE8SamEntryEENS_19__map_value_compareIS3_S5_16ComparePositionsLb1EEENS_9allocatorIS5_EEE10value_compB8ue170006Ev, symObjAddr: 0xD3EC, symBinAddr: 0x10000E70C, symSize: 0x28 }
  - { offsetInCU: 0x23A6F, offset: 0x23A6F, size: 0x8, addend: 0x0, symName: __ZNKSt3__119__map_value_compareINS_4pairIiiEENS_12__value_typeIS2_8SamEntryEE16ComparePositionsLb1EEclB8ue170006ERKS2_RKS5_, symObjAddr: 0xD414, symBinAddr: 0x10000E734, symSize: 0x50 }
  - { offsetInCU: 0x23AB3, offset: 0x23AB3, size: 0x8, addend: 0x0, symName: __ZNKSt3__119__map_value_compareINS_4pairIiiEENS_12__value_typeIS2_8SamEntryEE16ComparePositionsLb1EEclB8ue170006ERKS5_RKS2_, symObjAddr: 0xD464, symBinAddr: 0x10000E784, symSize: 0x48 }
  - { offsetInCU: 0x23AF7, offset: 0x23AF7, size: 0x8, addend: 0x0, symName: __ZNSt3__117__compressed_pairImNS_19__map_value_compareINS_4pairIiiEENS_12__value_typeIS3_8SamEntryEE16ComparePositionsLb1EEEE6secondB8ue170006Ev, symObjAddr: 0xD4AC, symBinAddr: 0x10000E7CC, symSize: 0x24 }
  - { offsetInCU: 0x23B1D, offset: 0x23B1D, size: 0x8, addend: 0x0, symName: __ZNSt3__122__compressed_pair_elemINS_19__map_value_compareINS_4pairIiiEENS_12__value_typeIS3_8SamEntryEE16ComparePositionsLb1EEELi1ELb1EE5__getB8ue170006Ev, symObjAddr: 0xD4D0, symBinAddr: 0x10000E7F0, symSize: 0x14 }
  - { offsetInCU: 0x23B43, offset: 0x23B43, size: 0x8, addend: 0x0, symName: __ZNK16ComparePositionsclERKNSt3__14pairIiiEES4_, symObjAddr: 0xD4E4, symBinAddr: 0x10000E804, symSize: 0x90 }
  - { offsetInCU: 0x23B85, offset: 0x23B85, size: 0x8, addend: 0x0, symName: __ZNSt3__116allocator_traitsINS_9allocatorINS_11__tree_nodeINS_12__value_typeINS_4pairIiiEE8SamEntryEEPvEEEEE8allocateB8ue170006ERSA_m, symObjAddr: 0xD574, symBinAddr: 0x10000E894, symSize: 0x2C }
  - { offsetInCU: 0x23BB8, offset: 0x23BB8, size: 0x8, addend: 0x0, symName: __ZNSt3__122__tree_node_destructorINS_9allocatorINS_11__tree_nodeINS_12__value_typeINS_4pairIiiEE8SamEntryEEPvEEEEEC1B8ue170006ERSA_b, symObjAddr: 0xD5A0, symBinAddr: 0x10000E8C0, symSize: 0x48 }
  - { offsetInCU: 0x23C06, offset: 0x23C06, size: 0x8, addend: 0x0, symName: __ZNSt3__110unique_ptrINS_11__tree_nodeINS_12__value_typeINS_4pairIiiEE8SamEntryEEPvEENS_22__tree_node_destructorINS_9allocatorIS8_EEEEEC1B8ue170006ILb1EvEEPS8_NS_16__dependent_typeINS_27__unique_ptr_deleter_sfinaeISC_EEXT_EE20__good_rval_ref_typeE, symObjAddr: 0xD5E8, symBinAddr: 0x10000E908, symSize: 0x3C }
  - { offsetInCU: 0x23C57, offset: 0x23C57, size: 0x8, addend: 0x0, symName: __ZNSt3__116allocator_traitsINS_9allocatorINS_11__tree_nodeINS_12__value_typeINS_4pairIiiEE8SamEntryEEPvEEEEE9constructB8ue170006INS4_IKS5_S6_EEJRKSE_EvEEvRSA_PT_DpOT0_, symObjAddr: 0xD624, symBinAddr: 0x10000E944, symSize: 0x34 }
  - { offsetInCU: 0x23CAE, offset: 0x23CAE, size: 0x8, addend: 0x0, symName: __ZNKSt3__110unique_ptrINS_11__tree_nodeINS_12__value_typeINS_4pairIiiEE8SamEntryEEPvEENS_22__tree_node_destructorINS_9allocatorIS8_EEEEEptB8ue170006Ev, symObjAddr: 0xD658, symBinAddr: 0x10000E978, symSize: 0x28 }
  - { offsetInCU: 0x23CD4, offset: 0x23CD4, size: 0x8, addend: 0x0, symName: __ZNSt3__110unique_ptrINS_11__tree_nodeINS_12__value_typeINS_4pairIiiEE8SamEntryEEPvEENS_22__tree_node_destructorINS_9allocatorIS8_EEEEE11get_deleterB8ue170006Ev, symObjAddr: 0xD680, symBinAddr: 0x10000E9A0, symSize: 0x24 }
  - { offsetInCU: 0x23CFA, offset: 0x23CFA, size: 0x8, addend: 0x0, symName: __ZNSt3__19allocatorINS_11__tree_nodeINS_12__value_typeINS_4pairIiiEE8SamEntryEEPvEEE8allocateB8ue170006Em, symObjAddr: 0xD6A4, symBinAddr: 0x10000E9C4, symSize: 0x5C }
  - { offsetInCU: 0x23D39, offset: 0x23D39, size: 0x8, addend: 0x0, symName: __ZNSt3__116allocator_traitsINS_9allocatorINS_11__tree_nodeINS_12__value_typeINS_4pairIiiEE8SamEntryEEPvEEEEE8max_sizeB8ue170006ISA_vEEmRKSA_, symObjAddr: 0xD700, symBinAddr: 0x10000EA20, symSize: 0x24 }
  - { offsetInCU: 0x23D67, offset: 0x23D67, size: 0x8, addend: 0x0, symName: __ZNKSt3__19allocatorINS_11__tree_nodeINS_12__value_typeINS_4pairIiiEE8SamEntryEEPvEEE8max_sizeB8ue170006Ev, symObjAddr: 0xD724, symBinAddr: 0x10000EA44, symSize: 0x18 }
  - { offsetInCU: 0x23D8D, offset: 0x23D8D, size: 0x8, addend: 0x0, symName: __ZNSt3__122__tree_node_destructorINS_9allocatorINS_11__tree_nodeINS_12__value_typeINS_4pairIiiEE8SamEntryEEPvEEEEEC2B8ue170006ERSA_b, symObjAddr: 0xD73C, symBinAddr: 0x10000EA5C, symSize: 0x38 }
  - { offsetInCU: 0x23DD5, offset: 0x23DD5, size: 0x8, addend: 0x0, symName: __ZNSt3__110unique_ptrINS_11__tree_nodeINS_12__value_typeINS_4pairIiiEE8SamEntryEEPvEENS_22__tree_node_destructorINS_9allocatorIS8_EEEEEC2B8ue170006ILb1EvEEPS8_NS_16__dependent_typeINS_27__unique_ptr_deleter_sfinaeISC_EEXT_EE20__good_rval_ref_typeE, symObjAddr: 0xD774, symBinAddr: 0x10000EA94, symSize: 0x48 }
  - { offsetInCU: 0x23E26, offset: 0x23E26, size: 0x8, addend: 0x0, symName: __ZNSt3__117__compressed_pairIPNS_11__tree_nodeINS_12__value_typeINS_4pairIiiEE8SamEntryEEPvEENS_22__tree_node_destructorINS_9allocatorIS8_EEEEEC1B8ue170006IRS9_SD_EEOT_OT0_, symObjAddr: 0xD7BC, symBinAddr: 0x10000EADC, symSize: 0x3C }
  - { offsetInCU: 0x23E7E, offset: 0x23E7E, size: 0x8, addend: 0x0, symName: __ZNSt3__117__compressed_pairIPNS_11__tree_nodeINS_12__value_typeINS_4pairIiiEE8SamEntryEEPvEENS_22__tree_node_destructorINS_9allocatorIS8_EEEEEC2B8ue170006IRS9_SD_EEOT_OT0_, symObjAddr: 0xD7F8, symBinAddr: 0x10000EB18, symSize: 0x48 }
  - { offsetInCU: 0x23ED6, offset: 0x23ED6, size: 0x8, addend: 0x0, symName: __ZNSt3__122__compressed_pair_elemIPNS_11__tree_nodeINS_12__value_typeINS_4pairIiiEE8SamEntryEEPvEELi0ELb0EEC2B8ue170006IRS9_vEEOT_, symObjAddr: 0xD840, symBinAddr: 0x10000EB60, symSize: 0x24 }
  - { offsetInCU: 0x23F18, offset: 0x23F18, size: 0x8, addend: 0x0, symName: __ZNSt3__122__compressed_pair_elemINS_22__tree_node_destructorINS_9allocatorINS_11__tree_nodeINS_12__value_typeINS_4pairIiiEE8SamEntryEEPvEEEEEELi1ELb0EEC2B8ue170006ISC_vEEOT_, symObjAddr: 0xD864, symBinAddr: 0x10000EB84, symSize: 0x24 }
  - { offsetInCU: 0x23F5A, offset: 0x23F5A, size: 0x8, addend: 0x0, symName: __ZNSt3__19allocatorINS_11__tree_nodeINS_12__value_typeINS_4pairIiiEE8SamEntryEEPvEEE9constructB8ue170006INS3_IKS4_S5_EEJRKSC_EEEvPT_DpOT0_, symObjAddr: 0xD888, symBinAddr: 0x10000EBA8, symSize: 0x30 }
  - { offsetInCU: 0x23FB0, offset: 0x23FB0, size: 0x8, addend: 0x0, symName: __ZNSt3__14pairIKNS0_IiiEE8SamEntryEC1B8ue170006ERKS4_, symObjAddr: 0xD8B8, symBinAddr: 0x10000EBD8, symSize: 0x34 }
  - { offsetInCU: 0x23FE4, offset: 0x23FE4, size: 0x8, addend: 0x0, symName: __ZNSt3__14pairIKNS0_IiiEE8SamEntryEC2B8ue170006ERKS4_, symObjAddr: 0xD8EC, symBinAddr: 0x10000EC0C, symSize: 0x48 }
  - { offsetInCU: 0x24018, offset: 0x24018, size: 0x8, addend: 0x0, symName: __ZNKSt3__117__compressed_pairIPNS_11__tree_nodeINS_12__value_typeINS_4pairIiiEE8SamEntryEEPvEENS_22__tree_node_destructorINS_9allocatorIS8_EEEEE5firstB8ue170006Ev, symObjAddr: 0xD934, symBinAddr: 0x10000EC54, symSize: 0x24 }
  - { offsetInCU: 0x2403E, offset: 0x2403E, size: 0x8, addend: 0x0, symName: __ZNKSt3__122__compressed_pair_elemIPNS_11__tree_nodeINS_12__value_typeINS_4pairIiiEE8SamEntryEEPvEELi0ELb0EE5__getB8ue170006Ev, symObjAddr: 0xD958, symBinAddr: 0x10000EC78, symSize: 0x14 }
  - { offsetInCU: 0x24064, offset: 0x24064, size: 0x8, addend: 0x0, symName: __ZNSt3__117__compressed_pairIPNS_11__tree_nodeINS_12__value_typeINS_4pairIiiEE8SamEntryEEPvEENS_22__tree_node_destructorINS_9allocatorIS8_EEEEE6secondB8ue170006Ev, symObjAddr: 0xD96C, symBinAddr: 0x10000EC8C, symSize: 0x28 }
  - { offsetInCU: 0x2408A, offset: 0x2408A, size: 0x8, addend: 0x0, symName: __ZNSt3__122__compressed_pair_elemINS_22__tree_node_destructorINS_9allocatorINS_11__tree_nodeINS_12__value_typeINS_4pairIiiEE8SamEntryEEPvEEEEEELi1ELb0EE5__getB8ue170006Ev, symObjAddr: 0xD994, symBinAddr: 0x10000ECB4, symSize: 0x14 }
  - { offsetInCU: 0x240B0, offset: 0x240B0, size: 0x8, addend: 0x0, symName: __ZNSt3__16__treeINS_12__value_typeINS_4pairIiiEE8SamEntryEENS_19__map_value_compareIS3_S5_16ComparePositionsLb1EEENS_9allocatorIS5_EEE4sizeB8ue170006Ev, symObjAddr: 0xD9A8, symBinAddr: 0x10000ECC8, symSize: 0x28 }
  - { offsetInCU: 0x240D6, offset: 0x240D6, size: 0x8, addend: 0x0, symName: __ZNSt3__117__compressed_pairImNS_19__map_value_compareINS_4pairIiiEENS_12__value_typeIS3_8SamEntryEE16ComparePositionsLb1EEEE5firstB8ue170006Ev, symObjAddr: 0xD9D0, symBinAddr: 0x10000ECF0, symSize: 0x24 }
  - { offsetInCU: 0x240FC, offset: 0x240FC, size: 0x8, addend: 0x0, symName: __ZNSt3__117__compressed_pairIPNS_11__tree_nodeINS_12__value_typeINS_4pairIiiEE8SamEntryEEPvEENS_22__tree_node_destructorINS_9allocatorIS8_EEEEE5firstB8ue170006Ev, symObjAddr: 0xD9F4, symBinAddr: 0x10000ED14, symSize: 0x24 }
  - { offsetInCU: 0x24122, offset: 0x24122, size: 0x8, addend: 0x0, symName: __ZNSt3__122__compressed_pair_elemIPNS_11__tree_nodeINS_12__value_typeINS_4pairIiiEE8SamEntryEEPvEELi0ELb0EE5__getB8ue170006Ev, symObjAddr: 0xDA18, symBinAddr: 0x10000ED38, symSize: 0x14 }
  - { offsetInCU: 0x24148, offset: 0x24148, size: 0x8, addend: 0x0, symName: __ZNSt3__110unique_ptrINS_11__tree_nodeINS_12__value_typeINS_4pairIiiEE8SamEntryEEPvEENS_22__tree_node_destructorINS_9allocatorIS8_EEEEED2B8ue170006Ev, symObjAddr: 0xDA2C, symBinAddr: 0x10000ED4C, symSize: 0x30 }
  - { offsetInCU: 0x24172, offset: 0x24172, size: 0x8, addend: 0x0, symName: __ZNSt3__110unique_ptrINS_11__tree_nodeINS_12__value_typeINS_4pairIiiEE8SamEntryEEPvEENS_22__tree_node_destructorINS_9allocatorIS8_EEEEE5resetB8ue170006EPS8_, symObjAddr: 0xDA5C, symBinAddr: 0x10000ED7C, symSize: 0x78 }
  - { offsetInCU: 0x241B6, offset: 0x241B6, size: 0x8, addend: 0x0, symName: __ZNSt3__122__tree_node_destructorINS_9allocatorINS_11__tree_nodeINS_12__value_typeINS_4pairIiiEE8SamEntryEEPvEEEEEclB8ue170006EPS9_, symObjAddr: 0xDAD4, symBinAddr: 0x10000EDF4, symSize: 0x94 }
  - { offsetInCU: 0x241EB, offset: 0x241EB, size: 0x8, addend: 0x0, symName: __ZNSt3__115__tree_iteratorINS_12__value_typeINS_4pairIiiEE8SamEntryEEPNS_11__tree_nodeIS5_PvEElEC2B8ue170006ES9_, symObjAddr: 0xDB68, symBinAddr: 0x10000EE88, symSize: 0x20 }
  - { offsetInCU: 0x24224, offset: 0x24224, size: 0x8, addend: 0x0, symName: __ZNSt3__14pairINS_15__tree_iteratorINS_12__value_typeINS0_IiiEE8SamEntryEEPNS_11__tree_nodeIS5_PvEElEEbEC2B8ue170006ISA_RbLS7_0EEEOT_OT0_, symObjAddr: 0xDB88, symBinAddr: 0x10000EEA8, symSize: 0x38 }
  - { offsetInCU: 0x24282, offset: 0x24282, size: 0x8, addend: 0x0, symName: __ZNSt3__14pairINS_14__map_iteratorINS_15__tree_iteratorINS_12__value_typeINS0_IiiEE8SamEntryEEPNS_11__tree_nodeIS6_PvEElEEEEbEC2B8ue170006ISB_bLS8_0EEEONS0_IT_T0_EE, symObjAddr: 0xDBC0, symBinAddr: 0x10000EEE0, symSize: 0x50 }
  - { offsetInCU: 0x242D3, offset: 0x242D3, size: 0x8, addend: 0x0, symName: __ZNSt3__114__map_iteratorINS_15__tree_iteratorINS_12__value_typeINS_4pairIiiEE8SamEntryEEPNS_11__tree_nodeIS6_PvEElEEEC1B8ue170006ESB_, symObjAddr: 0xDC10, symBinAddr: 0x10000EF30, symSize: 0x34 }
  - { offsetInCU: 0x2430C, offset: 0x2430C, size: 0x8, addend: 0x0, symName: __ZNSt3__114__map_iteratorINS_15__tree_iteratorINS_12__value_typeINS_4pairIiiEE8SamEntryEEPNS_11__tree_nodeIS6_PvEElEEEC2B8ue170006ESB_, symObjAddr: 0xDC44, symBinAddr: 0x10000EF64, symSize: 0x20 }
  - { offsetInCU: 0x24345, offset: 0x24345, size: 0x8, addend: 0x0, symName: __ZNSt3__16__treeINS_12__value_typeINS_4pairIiiEE8SamEntryEENS_19__map_value_compareIS3_S5_16ComparePositionsLb1EEENS_9allocatorIS5_EEE5beginB8ue170006Ev, symObjAddr: 0xDC64, symBinAddr: 0x10000EF84, symSize: 0x34 }
  - { offsetInCU: 0x2436B, offset: 0x2436B, size: 0x8, addend: 0x0, symName: __ZNSt3__115__tree_iteratorINS_12__value_typeINS_4pairIiiEE8SamEntryEEPNS_11__tree_nodeIS5_PvEElEC1B8ue170006EPNS_15__tree_end_nodeIPNS_16__tree_node_baseIS7_EEEE, symObjAddr: 0xDC98, symBinAddr: 0x10000EFB8, symSize: 0x34 }
  - { offsetInCU: 0x243A4, offset: 0x243A4, size: 0x8, addend: 0x0, symName: __ZNSt3__115__tree_iteratorINS_12__value_typeINS_4pairIiiEE8SamEntryEEPNS_11__tree_nodeIS5_PvEElEC2B8ue170006EPNS_15__tree_end_nodeIPNS_16__tree_node_baseIS7_EEEE, symObjAddr: 0xDCCC, symBinAddr: 0x10000EFEC, symSize: 0x20 }
  - { offsetInCU: 0x243DD, offset: 0x243DD, size: 0x8, addend: 0x0, symName: __ZNSt3__16__treeINS_12__value_typeINS_4pairIiiEE8SamEntryEENS_19__map_value_compareIS3_S5_16ComparePositionsLb1EEENS_9allocatorIS5_EEE3endB8ue170006Ev, symObjAddr: 0xDCEC, symBinAddr: 0x10000F00C, symSize: 0x34 }
  - { offsetInCU: 0x24403, offset: 0x24403, size: 0x8, addend: 0x0, symName: __ZNSt3__115__tree_iteratorINS_12__value_typeINS_4pairIiiEE8SamEntryEEPNS_11__tree_nodeIS5_PvEElEppB8ue170006Ev, symObjAddr: 0xDD84, symBinAddr: 0x10000F0A4, symSize: 0x38 }
  - { offsetInCU: 0x24429, offset: 0x24429, size: 0x8, addend: 0x0, symName: __ZNKSt3__115__tree_iteratorINS_12__value_typeINS_4pairIiiEE8SamEntryEEPNS_11__tree_nodeIS5_PvEElEptB8ue170006Ev, symObjAddr: 0xDDBC, symBinAddr: 0x10000F0DC, symSize: 0x2C }
  - { offsetInCU: 0x2444F, offset: 0x2444F, size: 0x8, addend: 0x0, symName: __ZNSt3__114pointer_traitsIPNS_12__value_typeINS_4pairIiiEE8SamEntryEEE10pointer_toB8ue170006ERS5_, symObjAddr: 0xDDE8, symBinAddr: 0x10000F108, symSize: 0x14 }
  - { offsetInCU: 0x24472, offset: 0x24472, size: 0x8, addend: 0x0, symName: __ZNKSt3__115__tree_iteratorINS_12__value_typeINS_4pairIiiEE8SamEntryEEPNS_11__tree_nodeIS5_PvEElE8__get_npB8ue170006Ev, symObjAddr: 0xDDFC, symBinAddr: 0x10000F11C, symSize: 0x18 }
  - { offsetInCU: 0x24498, offset: 0x24498, size: 0x8, addend: 0x0, symName: __ZNSt3__16vectorINS_4pairIciEENS_9allocatorIS2_EEE11__make_iterB8ue170006EPS2_, symObjAddr: 0xDE14, symBinAddr: 0x10000F134, symSize: 0x30 }
  - { offsetInCU: 0x244CD, offset: 0x244CD, size: 0x8, addend: 0x0, symName: __ZNSt3__111__wrap_iterIPNS_4pairIciEEEC1B8ue170006ES3_, symObjAddr: 0xDE44, symBinAddr: 0x10000F164, symSize: 0x34 }
  - { offsetInCU: 0x24505, offset: 0x24505, size: 0x8, addend: 0x0, symName: __ZNSt3__111__wrap_iterIPNS_4pairIciEEEC2B8ue170006ES3_, symObjAddr: 0xDE78, symBinAddr: 0x10000F198, symSize: 0x20 }
  - { offsetInCU: 0x2453D, offset: 0x2453D, size: 0x8, addend: 0x0, symName: __ZNKSt3__112basic_stringIcNS_11char_traitsIcEENS_9allocatorIcEEE15__get_long_sizeB8ue170006Ev, symObjAddr: 0xDE98, symBinAddr: 0x10000F1B8, symSize: 0x28 }
  - { offsetInCU: 0x24563, offset: 0x24563, size: 0x8, addend: 0x0, symName: __ZNKSt3__112basic_stringIcNS_11char_traitsIcEENS_9allocatorIcEEE16__get_short_sizeB8ue170006Ev, symObjAddr: 0xDEC0, symBinAddr: 0x10000F1E0, symSize: 0x34 }
  - { offsetInCU: 0x24589, offset: 0x24589, size: 0x8, addend: 0x0, symName: __ZNSt3__113basic_ostreamIcNS_11char_traitsIcEEEC2B8ue170006EPNS_15basic_streambufIcS2_EE, symObjAddr: 0xDEF4, symBinAddr: 0x10000F214, symSize: 0x60 }
  - { offsetInCU: 0x245CE, offset: 0x245CE, size: 0x8, addend: 0x0, symName: __ZNSt3__13mapIi16MutationProposalNS_4lessIiEENS_9allocatorINS_4pairIKiS1_EEEEEC2B8ue170006Ev, symObjAddr: 0xDF54, symBinAddr: 0x10000F274, symSize: 0x40 }
  - { offsetInCU: 0x245F8, offset: 0x245F8, size: 0x8, addend: 0x0, symName: __ZNSt3__119__map_value_compareIiNS_12__value_typeIi16MutationProposalEENS_4lessIiEELb1EEC1B8ue170006ES5_, symObjAddr: 0xDF94, symBinAddr: 0x10000F2B4, symSize: 0x2C }
  - { offsetInCU: 0x24631, offset: 0x24631, size: 0x8, addend: 0x0, symName: __ZNSt3__16__treeINS_12__value_typeIi16MutationProposalEENS_19__map_value_compareIiS3_NS_4lessIiEELb1EEENS_9allocatorIS3_EEEC1ERKS7_, symObjAddr: 0xDFC0, symBinAddr: 0x10000F2E0, symSize: 0x34 }
  - { offsetInCU: 0x2466C, offset: 0x2466C, size: 0x8, addend: 0x0, symName: __ZNSt3__119__map_value_compareIiNS_12__value_typeIi16MutationProposalEENS_4lessIiEELb1EEC2B8ue170006ES5_, symObjAddr: 0xDFF4, symBinAddr: 0x10000F314, symSize: 0x14 }
  - { offsetInCU: 0x246A5, offset: 0x246A5, size: 0x8, addend: 0x0, symName: __ZNSt3__16__treeINS_12__value_typeIi16MutationProposalEENS_19__map_value_compareIiS3_NS_4lessIiEELb1EEENS_9allocatorIS3_EEEC2ERKS7_, symObjAddr: 0xE008, symBinAddr: 0x10000F328, symSize: 0x7C }
  - { offsetInCU: 0x246E0, offset: 0x246E0, size: 0x8, addend: 0x0, symName: __ZNSt3__117__compressed_pairINS_15__tree_end_nodeIPNS_16__tree_node_baseIPvEEEENS_9allocatorINS_11__tree_nodeINS_12__value_typeIi16MutationProposalEES3_EEEEEC1B8ue170006ILb1EvEEv, symObjAddr: 0xE084, symBinAddr: 0x10000F3A4, symSize: 0x2C }
  - { offsetInCU: 0x24715, offset: 0x24715, size: 0x8, addend: 0x0, symName: __ZNSt3__117__compressed_pairImNS_19__map_value_compareIiNS_12__value_typeIi16MutationProposalEENS_4lessIiEELb1EEEEC1B8ue170006IiRKS7_EEOT_OT0_, symObjAddr: 0xE0B0, symBinAddr: 0x10000F3D0, symSize: 0x3C }
  - { offsetInCU: 0x2476D, offset: 0x2476D, size: 0x8, addend: 0x0, symName: __ZNSt3__117__compressed_pairINS_15__tree_end_nodeIPNS_16__tree_node_baseIPvEEEENS_9allocatorINS_11__tree_nodeINS_12__value_typeIi16MutationProposalEES3_EEEEEC2B8ue170006ILb1EvEEv, symObjAddr: 0xE0EC, symBinAddr: 0x10000F40C, symSize: 0x34 }
  - { offsetInCU: 0x247A2, offset: 0x247A2, size: 0x8, addend: 0x0, symName: __ZNSt3__122__compressed_pair_elemINS_9allocatorINS_11__tree_nodeINS_12__value_typeIi16MutationProposalEEPvEEEELi1ELb1EEC2B8ue170006ENS_16__value_init_tagE, symObjAddr: 0xE120, symBinAddr: 0x10000F440, symSize: 0x2C }
  - { offsetInCU: 0x247D6, offset: 0x247D6, size: 0x8, addend: 0x0, symName: __ZNSt3__19allocatorINS_11__tree_nodeINS_12__value_typeIi16MutationProposalEEPvEEEC2B8ue170006Ev, symObjAddr: 0xE14C, symBinAddr: 0x10000F46C, symSize: 0x2C }
  - { offsetInCU: 0x24800, offset: 0x24800, size: 0x8, addend: 0x0, symName: __ZNSt3__116__non_trivial_ifILb1ENS_9allocatorINS_11__tree_nodeINS_12__value_typeIi16MutationProposalEEPvEEEEEC2B8ue170006Ev, symObjAddr: 0xE178, symBinAddr: 0x10000F498, symSize: 0x14 }
  - { offsetInCU: 0x2482A, offset: 0x2482A, size: 0x8, addend: 0x0, symName: __ZNSt3__117__compressed_pairImNS_19__map_value_compareIiNS_12__value_typeIi16MutationProposalEENS_4lessIiEELb1EEEEC2B8ue170006IiRKS7_EEOT_OT0_, symObjAddr: 0xE18C, symBinAddr: 0x10000F4AC, symSize: 0x44 }
  - { offsetInCU: 0x24882, offset: 0x24882, size: 0x8, addend: 0x0, symName: __ZNSt3__122__compressed_pair_elemINS_19__map_value_compareIiNS_12__value_typeIi16MutationProposalEENS_4lessIiEELb1EEELi1ELb1EEC2B8ue170006IRKS7_vEEOT_, symObjAddr: 0xE1D0, symBinAddr: 0x10000F4F0, symSize: 0x18 }
  - { offsetInCU: 0x248C4, offset: 0x248C4, size: 0x8, addend: 0x0, symName: __ZNSt3__13mapIi16MutationProposalNS_4lessIiEENS_9allocatorINS_4pairIKiS1_EEEEED2B8ue170006Ev, symObjAddr: 0xE1E8, symBinAddr: 0x10000F508, symSize: 0x2C }
  - { offsetInCU: 0x248EE, offset: 0x248EE, size: 0x8, addend: 0x0, symName: __ZNSt3__16__treeINS_12__value_typeIi16MutationProposalEENS_19__map_value_compareIiS3_NS_4lessIiEELb1EEENS_9allocatorIS3_EEED1Ev, symObjAddr: 0xE214, symBinAddr: 0x10000F534, symSize: 0x2C }
  - { offsetInCU: 0x2491A, offset: 0x2491A, size: 0x8, addend: 0x0, symName: __ZNSt3__16__treeINS_12__value_typeIi16MutationProposalEENS_19__map_value_compareIiS3_NS_4lessIiEELb1EEENS_9allocatorIS3_EEED2Ev, symObjAddr: 0xE240, symBinAddr: 0x10000F560, symSize: 0x38 }
  - { offsetInCU: 0x24946, offset: 0x24946, size: 0x8, addend: 0x0, symName: __ZNSt3__16__treeINS_12__value_typeIi16MutationProposalEENS_19__map_value_compareIiS3_NS_4lessIiEELb1EEENS_9allocatorIS3_EEE7destroyEPNS_11__tree_nodeIS3_PvEE, symObjAddr: 0xE278, symBinAddr: 0x10000F598, symSize: 0xA8 }
  - { offsetInCU: 0x24992, offset: 0x24992, size: 0x8, addend: 0x0, symName: __ZNKSt3__16__treeINS_12__value_typeINS_4pairIiiEE8SamEntryEENS_19__map_value_compareIS3_S5_16ComparePositionsLb1EEENS_9allocatorIS5_EEE4sizeB8ue170006Ev, symObjAddr: 0xE320, symBinAddr: 0x10000F640, symSize: 0x28 }
  - { offsetInCU: 0x249B8, offset: 0x249B8, size: 0x8, addend: 0x0, symName: __ZNKSt3__117__compressed_pairImNS_19__map_value_compareINS_4pairIiiEENS_12__value_typeIS3_8SamEntryEE16ComparePositionsLb1EEEE5firstB8ue170006Ev, symObjAddr: 0xE348, symBinAddr: 0x10000F668, symSize: 0x24 }
  - { offsetInCU: 0x249DE, offset: 0x249DE, size: 0x8, addend: 0x0, symName: __ZNKSt3__122__compressed_pair_elemImLi0ELb0EE5__getB8ue170006Ev, symObjAddr: 0xE36C, symBinAddr: 0x10000F68C, symSize: 0x14 }
  - { offsetInCU: 0x24A04, offset: 0x24A04, size: 0x8, addend: 0x0, symName: __ZNSt3__112basic_stringIcNS_11char_traitsIcEENS_9allocatorIcEEE15__make_iteratorB8ue170006EPc, symObjAddr: 0xE380, symBinAddr: 0x10000F6A0, symSize: 0x30 }
  - { offsetInCU: 0x24A39, offset: 0x24A39, size: 0x8, addend: 0x0, symName: __ZNSt3__111__wrap_iterIPcEC1B8ue170006ES1_, symObjAddr: 0xE3B0, symBinAddr: 0x10000F6D0, symSize: 0x34 }
  - { offsetInCU: 0x24A71, offset: 0x24A71, size: 0x8, addend: 0x0, symName: __ZNSt3__111__wrap_iterIPcEC2B8ue170006ES1_, symObjAddr: 0xE3E4, symBinAddr: 0x10000F704, symSize: 0x20 }
  - { offsetInCU: 0x24AA9, offset: 0x24AA9, size: 0x8, addend: 0x0, symName: __ZNSt3__111__wrap_iterIPcEmmB8ue170006Ev, symObjAddr: 0xE538, symBinAddr: 0x10000F858, symSize: 0x20 }
  - { offsetInCU: 0x24ACF, offset: 0x24ACF, size: 0x8, addend: 0x0, symName: __ZNSt3__18_IterOpsINS_17_ClassicAlgPolicyEE9iter_swapB8ue170006IRNS_11__wrap_iterIPcEES7_EEvOT_OT0_, symObjAddr: 0xE558, symBinAddr: 0x10000F878, symSize: 0x44 }
  - { offsetInCU: 0x24B12, offset: 0x24B12, size: 0x8, addend: 0x0, symName: __ZNSt3__111__wrap_iterIPcEppB8ue170006Ev, symObjAddr: 0xE59C, symBinAddr: 0x10000F8BC, symSize: 0x20 }
  - { offsetInCU: 0x24B38, offset: 0x24B38, size: 0x8, addend: 0x0, symName: __ZNKSt3__111__wrap_iterIPcE4baseB8ue170006Ev, symObjAddr: 0xE604, symBinAddr: 0x10000F924, symSize: 0x18 }
  - { offsetInCU: 0x24B5E, offset: 0x24B5E, size: 0x8, addend: 0x0, symName: __ZNKSt3__111__wrap_iterIPcEdeB8ue170006Ev, symObjAddr: 0xE6A8, symBinAddr: 0x10000F9C8, symSize: 0x18 }
  - { offsetInCU: 0x24B84, offset: 0x24B84, size: 0x8, addend: 0x0, symName: __ZNSt3__13mapIciNS_4lessIcEENS_9allocatorINS_4pairIKciEEEEEC2B8ue170006Ev, symObjAddr: 0xE6C0, symBinAddr: 0x10000F9E0, symSize: 0x40 }
  - { offsetInCU: 0x24BAE, offset: 0x24BAE, size: 0x8, addend: 0x0, symName: __ZNSt3__119__map_value_compareIcNS_12__value_typeIciEENS_4lessIcEELb1EEC1B8ue170006ES4_, symObjAddr: 0xE700, symBinAddr: 0x10000FA20, symSize: 0x2C }
  - { offsetInCU: 0x24BE7, offset: 0x24BE7, size: 0x8, addend: 0x0, symName: __ZNSt3__16__treeINS_12__value_typeIciEENS_19__map_value_compareIcS2_NS_4lessIcEELb1EEENS_9allocatorIS2_EEEC1ERKS6_, symObjAddr: 0xE72C, symBinAddr: 0x10000FA4C, symSize: 0x34 }
  - { offsetInCU: 0x24C22, offset: 0x24C22, size: 0x8, addend: 0x0, symName: __ZNSt3__119__map_value_compareIcNS_12__value_typeIciEENS_4lessIcEELb1EEC2B8ue170006ES4_, symObjAddr: 0xE760, symBinAddr: 0x10000FA80, symSize: 0x14 }
  - { offsetInCU: 0x24C5B, offset: 0x24C5B, size: 0x8, addend: 0x0, symName: __ZNSt3__16__treeINS_12__value_typeIciEENS_19__map_value_compareIcS2_NS_4lessIcEELb1EEENS_9allocatorIS2_EEEC2ERKS6_, symObjAddr: 0xE774, symBinAddr: 0x10000FA94, symSize: 0x7C }
  - { offsetInCU: 0x24C96, offset: 0x24C96, size: 0x8, addend: 0x0, symName: __ZNSt3__117__compressed_pairINS_15__tree_end_nodeIPNS_16__tree_node_baseIPvEEEENS_9allocatorINS_11__tree_nodeINS_12__value_typeIciEES3_EEEEEC1B8ue170006ILb1EvEEv, symObjAddr: 0xE7F0, symBinAddr: 0x10000FB10, symSize: 0x2C }
  - { offsetInCU: 0x24CCB, offset: 0x24CCB, size: 0x8, addend: 0x0, symName: __ZNSt3__117__compressed_pairImNS_19__map_value_compareIcNS_12__value_typeIciEENS_4lessIcEELb1EEEEC1B8ue170006IiRKS6_EEOT_OT0_, symObjAddr: 0xE81C, symBinAddr: 0x10000FB3C, symSize: 0x3C }
  - { offsetInCU: 0x24D23, offset: 0x24D23, size: 0x8, addend: 0x0, symName: __ZNSt3__16__treeINS_12__value_typeIciEENS_19__map_value_compareIcS2_NS_4lessIcEELb1EEENS_9allocatorIS2_EEE10__end_nodeB8ue170006Ev, symObjAddr: 0xE858, symBinAddr: 0x10000FB78, symSize: 0x2C }
  - { offsetInCU: 0x24D49, offset: 0x24D49, size: 0x8, addend: 0x0, symName: __ZNSt3__16__treeINS_12__value_typeIciEENS_19__map_value_compareIcS2_NS_4lessIcEELb1EEENS_9allocatorIS2_EEE12__begin_nodeB8ue170006Ev, symObjAddr: 0xE884, symBinAddr: 0x10000FBA4, symSize: 0x14 }
  - { offsetInCU: 0x24D6F, offset: 0x24D6F, size: 0x8, addend: 0x0, symName: __ZNSt3__117__compressed_pairINS_15__tree_end_nodeIPNS_16__tree_node_baseIPvEEEENS_9allocatorINS_11__tree_nodeINS_12__value_typeIciEES3_EEEEEC2B8ue170006ILb1EvEEv, symObjAddr: 0xE898, symBinAddr: 0x10000FBB8, symSize: 0x34 }
  - { offsetInCU: 0x24DA4, offset: 0x24DA4, size: 0x8, addend: 0x0, symName: __ZNSt3__122__compressed_pair_elemINS_9allocatorINS_11__tree_nodeINS_12__value_typeIciEEPvEEEELi1ELb1EEC2B8ue170006ENS_16__value_init_tagE, symObjAddr: 0xE8CC, symBinAddr: 0x10000FBEC, symSize: 0x2C }
  - { offsetInCU: 0x24DD8, offset: 0x24DD8, size: 0x8, addend: 0x0, symName: __ZNSt3__19allocatorINS_11__tree_nodeINS_12__value_typeIciEEPvEEEC2B8ue170006Ev, symObjAddr: 0xE8F8, symBinAddr: 0x10000FC18, symSize: 0x2C }
  - { offsetInCU: 0x24E02, offset: 0x24E02, size: 0x8, addend: 0x0, symName: __ZNSt3__116__non_trivial_ifILb1ENS_9allocatorINS_11__tree_nodeINS_12__value_typeIciEEPvEEEEEC2B8ue170006Ev, symObjAddr: 0xE924, symBinAddr: 0x10000FC44, symSize: 0x14 }
  - { offsetInCU: 0x24E2C, offset: 0x24E2C, size: 0x8, addend: 0x0, symName: __ZNSt3__117__compressed_pairImNS_19__map_value_compareIcNS_12__value_typeIciEENS_4lessIcEELb1EEEEC2B8ue170006IiRKS6_EEOT_OT0_, symObjAddr: 0xE938, symBinAddr: 0x10000FC58, symSize: 0x44 }
  - { offsetInCU: 0x24E84, offset: 0x24E84, size: 0x8, addend: 0x0, symName: __ZNSt3__122__compressed_pair_elemINS_19__map_value_compareIcNS_12__value_typeIciEENS_4lessIcEELb1EEELi1ELb1EEC2B8ue170006IRKS6_vEEOT_, symObjAddr: 0xE97C, symBinAddr: 0x10000FC9C, symSize: 0x18 }
  - { offsetInCU: 0x24EC6, offset: 0x24EC6, size: 0x8, addend: 0x0, symName: __ZNSt3__117__compressed_pairINS_15__tree_end_nodeIPNS_16__tree_node_baseIPvEEEENS_9allocatorINS_11__tree_nodeINS_12__value_typeIciEES3_EEEEE5firstB8ue170006Ev, symObjAddr: 0xE994, symBinAddr: 0x10000FCB4, symSize: 0x24 }
  - { offsetInCU: 0x24EEC, offset: 0x24EEC, size: 0x8, addend: 0x0, symName: __ZNSt3__13mapIciNS_4lessIcEENS_9allocatorINS_4pairIKciEEEEED2B8ue170006Ev, symObjAddr: 0xE9B8, symBinAddr: 0x10000FCD8, symSize: 0x2C }
  - { offsetInCU: 0x24F16, offset: 0x24F16, size: 0x8, addend: 0x0, symName: __ZNSt3__16__treeINS_12__value_typeIciEENS_19__map_value_compareIcS2_NS_4lessIcEELb1EEENS_9allocatorIS2_EEED1Ev, symObjAddr: 0xE9E4, symBinAddr: 0x10000FD04, symSize: 0x2C }
  - { offsetInCU: 0x24F42, offset: 0x24F42, size: 0x8, addend: 0x0, symName: __ZNSt3__16__treeINS_12__value_typeIciEENS_19__map_value_compareIcS2_NS_4lessIcEELb1EEENS_9allocatorIS2_EEED2Ev, symObjAddr: 0xEA10, symBinAddr: 0x10000FD30, symSize: 0x38 }
  - { offsetInCU: 0x24F6E, offset: 0x24F6E, size: 0x8, addend: 0x0, symName: __ZNSt3__16__treeINS_12__value_typeIciEENS_19__map_value_compareIcS2_NS_4lessIcEELb1EEENS_9allocatorIS2_EEE7destroyEPNS_11__tree_nodeIS2_PvEE, symObjAddr: 0xEA48, symBinAddr: 0x10000FD68, symSize: 0xAC }
  - { offsetInCU: 0x24FBA, offset: 0x24FBA, size: 0x8, addend: 0x0, symName: __ZNKSt3__16__treeINS_12__value_typeIciEENS_19__map_value_compareIcS2_NS_4lessIcEELb1EEENS_9allocatorIS2_EEE6__rootB8ue170006Ev, symObjAddr: 0xEAF4, symBinAddr: 0x10000FE14, symSize: 0x28 }
  - { offsetInCU: 0x24FE0, offset: 0x24FE0, size: 0x8, addend: 0x0, symName: __ZNSt3__16__treeINS_12__value_typeIciEENS_19__map_value_compareIcS2_NS_4lessIcEELb1EEENS_9allocatorIS2_EEE12__node_allocB8ue170006Ev, symObjAddr: 0xEB1C, symBinAddr: 0x10000FE3C, symSize: 0x28 }
  - { offsetInCU: 0x25006, offset: 0x25006, size: 0x8, addend: 0x0, symName: __ZNSt3__116allocator_traitsINS_9allocatorINS_11__tree_nodeINS_12__value_typeIciEEPvEEEEE7destroyB8ue170006INS_4pairIKciEEvvEEvRS7_PT_, symObjAddr: 0xEB44, symBinAddr: 0x10000FE64, symSize: 0x14 }
  - { offsetInCU: 0x25040, offset: 0x25040, size: 0x8, addend: 0x0, symName: __ZNSt3__122__tree_key_value_typesINS_12__value_typeIciEEE9__get_ptrB8ue170006ERS2_, symObjAddr: 0xEB58, symBinAddr: 0x10000FE78, symSize: 0x24 }
  - { offsetInCU: 0x25064, offset: 0x25064, size: 0x8, addend: 0x0, symName: __ZNSt3__116allocator_traitsINS_9allocatorINS_11__tree_nodeINS_12__value_typeIciEEPvEEEEE10deallocateB8ue170006ERS7_PS6_m, symObjAddr: 0xEB7C, symBinAddr: 0x10000FE9C, symSize: 0x34 }
  - { offsetInCU: 0x250A6, offset: 0x250A6, size: 0x8, addend: 0x0, symName: __ZNSt3__117__compressed_pairINS_15__tree_end_nodeIPNS_16__tree_node_baseIPvEEEENS_9allocatorINS_11__tree_nodeINS_12__value_typeIciEES3_EEEEE6secondB8ue170006Ev, symObjAddr: 0xEBB0, symBinAddr: 0x10000FED0, symSize: 0x24 }
  - { offsetInCU: 0x250CC, offset: 0x250CC, size: 0x8, addend: 0x0, symName: __ZNSt3__122__compressed_pair_elemINS_9allocatorINS_11__tree_nodeINS_12__value_typeIciEEPvEEEELi1ELb1EE5__getB8ue170006Ev, symObjAddr: 0xEBD4, symBinAddr: 0x10000FEF4, symSize: 0x14 }
  - { offsetInCU: 0x250F2, offset: 0x250F2, size: 0x8, addend: 0x0, symName: __ZNSt3__19allocatorINS_11__tree_nodeINS_12__value_typeIciEEPvEEE10deallocateB8ue170006EPS5_m, symObjAddr: 0xEBE8, symBinAddr: 0x10000FF08, symSize: 0x44 }
  - { offsetInCU: 0x25134, offset: 0x25134, size: 0x8, addend: 0x0, symName: __ZNKSt3__16__treeINS_12__value_typeIciEENS_19__map_value_compareIcS2_NS_4lessIcEELb1EEENS_9allocatorIS2_EEE10__end_nodeB8ue170006Ev, symObjAddr: 0xEC2C, symBinAddr: 0x10000FF4C, symSize: 0x2C }
  - { offsetInCU: 0x2515A, offset: 0x2515A, size: 0x8, addend: 0x0, symName: __ZNKSt3__117__compressed_pairINS_15__tree_end_nodeIPNS_16__tree_node_baseIPvEEEENS_9allocatorINS_11__tree_nodeINS_12__value_typeIciEES3_EEEEE5firstB8ue170006Ev, symObjAddr: 0xEC58, symBinAddr: 0x10000FF78, symSize: 0x24 }
  - { offsetInCU: 0x25180, offset: 0x25180, size: 0x8, addend: 0x0, symName: __ZNKSt3__16vectorIcNS_9allocatorIcEEE11__make_iterB8ue170006EPKc, symObjAddr: 0xEC7C, symBinAddr: 0x10000FF9C, symSize: 0x30 }
  - { offsetInCU: 0x251B5, offset: 0x251B5, size: 0x8, addend: 0x0, symName: __ZNSt3__111__wrap_iterIPKcEC1B8ue170006ES2_, symObjAddr: 0xECAC, symBinAddr: 0x10000FFCC, symSize: 0x34 }
  - { offsetInCU: 0x251ED, offset: 0x251ED, size: 0x8, addend: 0x0, symName: __ZNSt3__111__wrap_iterIPKcEC2B8ue170006ES2_, symObjAddr: 0xECE0, symBinAddr: 0x100010000, symSize: 0x20 }
  - { offsetInCU: 0x25225, offset: 0x25225, size: 0x8, addend: 0x0, symName: __ZNSt3__16__treeINS_12__value_typeIciEENS_19__map_value_compareIcS2_NS_4lessIcEELb1EEENS_9allocatorIS2_EEE25__emplace_unique_key_argsIcJRKNS_21piecewise_construct_tENS_5tupleIJRKcEEENSE_IJEEEEEENS_4pairINS_15__tree_iteratorIS2_PNS_11__tree_nodeIS2_PvEElEEbEERKT_DpOT0_, symObjAddr: 0xED00, symBinAddr: 0x100010020, symSize: 0x100 }
  - { offsetInCU: 0x252FB, offset: 0x252FB, size: 0x8, addend: 0x0, symName: __ZNSt3__16__treeINS_12__value_typeIciEENS_19__map_value_compareIcS2_NS_4lessIcEELb1EEENS_9allocatorIS2_EEE12__find_equalIcEERPNS_16__tree_node_baseIPvEERPNS_15__tree_end_nodeISE_EERKT_, symObjAddr: 0xEE2C, symBinAddr: 0x10001014C, symSize: 0x184 }
  - { offsetInCU: 0x25368, offset: 0x25368, size: 0x8, addend: 0x0, symName: __ZNSt3__16__treeINS_12__value_typeIciEENS_19__map_value_compareIcS2_NS_4lessIcEELb1EEENS_9allocatorIS2_EEE16__construct_nodeIJRKNS_21piecewise_construct_tENS_5tupleIJRKcEEENSE_IJEEEEEENS_10unique_ptrINS_11__tree_nodeIS2_PvEENS_22__tree_node_destructorINS7_ISM_EEEEEEDpOT_, symObjAddr: 0xEFB0, symBinAddr: 0x1000102D0, symSize: 0x118 }
  - { offsetInCU: 0x253F1, offset: 0x253F1, size: 0x8, addend: 0x0, symName: __ZNSt3__16__treeINS_12__value_typeIciEENS_19__map_value_compareIcS2_NS_4lessIcEELb1EEENS_9allocatorIS2_EEE16__insert_node_atEPNS_15__tree_end_nodeIPNS_16__tree_node_baseIPvEEEERSE_SE_, symObjAddr: 0xF0C8, symBinAddr: 0x1000103E8, symSize: 0xCC }
  - { offsetInCU: 0x25446, offset: 0x25446, size: 0x8, addend: 0x0, symName: __ZNKSt3__110unique_ptrINS_11__tree_nodeINS_12__value_typeIciEEPvEENS_22__tree_node_destructorINS_9allocatorIS5_EEEEE3getB8ue170006Ev, symObjAddr: 0xF194, symBinAddr: 0x1000104B4, symSize: 0x28 }
  - { offsetInCU: 0x2546C, offset: 0x2546C, size: 0x8, addend: 0x0, symName: __ZNSt3__110unique_ptrINS_11__tree_nodeINS_12__value_typeIciEEPvEENS_22__tree_node_destructorINS_9allocatorIS5_EEEEE7releaseB8ue170006Ev, symObjAddr: 0xF1BC, symBinAddr: 0x1000104DC, symSize: 0x44 }
  - { offsetInCU: 0x254A1, offset: 0x254A1, size: 0x8, addend: 0x0, symName: __ZNSt3__110unique_ptrINS_11__tree_nodeINS_12__value_typeIciEEPvEENS_22__tree_node_destructorINS_9allocatorIS5_EEEEED1B8ue170006Ev, symObjAddr: 0xF200, symBinAddr: 0x100010520, symSize: 0x2C }
  - { offsetInCU: 0x254CB, offset: 0x254CB, size: 0x8, addend: 0x0, symName: __ZNSt3__115__tree_iteratorINS_12__value_typeIciEEPNS_11__tree_nodeIS2_PvEElEC1B8ue170006ES6_, symObjAddr: 0xF22C, symBinAddr: 0x10001054C, symSize: 0x34 }
  - { offsetInCU: 0x2550A, offset: 0x2550A, size: 0x8, addend: 0x0, symName: __ZNSt3__14pairINS_15__tree_iteratorINS_12__value_typeIciEEPNS_11__tree_nodeIS3_PvEElEEbEC1B8ue170006IS8_RbLS5_0EEEOT_OT0_, symObjAddr: 0xF260, symBinAddr: 0x100010580, symSize: 0x3C }
  - { offsetInCU: 0x25568, offset: 0x25568, size: 0x8, addend: 0x0, symName: __ZNKSt3__16__treeINS_12__value_typeIciEENS_19__map_value_compareIcS2_NS_4lessIcEELb1EEENS_9allocatorIS2_EEE10__root_ptrB8ue170006Ev, symObjAddr: 0xF29C, symBinAddr: 0x1000105BC, symSize: 0x24 }
  - { offsetInCU: 0x2558E, offset: 0x2558E, size: 0x8, addend: 0x0, symName: __ZNSt3__16__treeINS_12__value_typeIciEENS_19__map_value_compareIcS2_NS_4lessIcEELb1EEENS_9allocatorIS2_EEE10value_compB8ue170006Ev, symObjAddr: 0xF2C0, symBinAddr: 0x1000105E0, symSize: 0x28 }
  - { offsetInCU: 0x255B4, offset: 0x255B4, size: 0x8, addend: 0x0, symName: __ZNKSt3__119__map_value_compareIcNS_12__value_typeIciEENS_4lessIcEELb1EEclB8ue170006ERKcRKS2_, symObjAddr: 0xF2E8, symBinAddr: 0x100010608, symSize: 0x50 }
  - { offsetInCU: 0x255F8, offset: 0x255F8, size: 0x8, addend: 0x0, symName: __ZNKSt3__119__map_value_compareIcNS_12__value_typeIciEENS_4lessIcEELb1EEclB8ue170006ERKS2_RKc, symObjAddr: 0xF338, symBinAddr: 0x100010658, symSize: 0x48 }
  - { offsetInCU: 0x2563C, offset: 0x2563C, size: 0x8, addend: 0x0, symName: __ZNSt3__117__compressed_pairImNS_19__map_value_compareIcNS_12__value_typeIciEENS_4lessIcEELb1EEEE6secondB8ue170006Ev, symObjAddr: 0xF380, symBinAddr: 0x1000106A0, symSize: 0x24 }
  - { offsetInCU: 0x25662, offset: 0x25662, size: 0x8, addend: 0x0, symName: __ZNSt3__122__compressed_pair_elemINS_19__map_value_compareIcNS_12__value_typeIciEENS_4lessIcEELb1EEELi1ELb1EE5__getB8ue170006Ev, symObjAddr: 0xF3A4, symBinAddr: 0x1000106C4, symSize: 0x14 }
  - { offsetInCU: 0x25688, offset: 0x25688, size: 0x8, addend: 0x0, symName: __ZNKSt3__14lessIcEclB8ue170006ERKcS3_, symObjAddr: 0xF3B8, symBinAddr: 0x1000106D8, symSize: 0x34 }
  - { offsetInCU: 0x256CC, offset: 0x256CC, size: 0x8, addend: 0x0, symName: __ZNKSt3__112__value_typeIciE11__get_valueB8ue170006Ev, symObjAddr: 0xF3EC, symBinAddr: 0x10001070C, symSize: 0x14 }
  - { offsetInCU: 0x256F2, offset: 0x256F2, size: 0x8, addend: 0x0, symName: __ZNSt3__116allocator_traitsINS_9allocatorINS_11__tree_nodeINS_12__value_typeIciEEPvEEEEE8allocateB8ue170006ERS7_m, symObjAddr: 0xF400, symBinAddr: 0x100010720, symSize: 0x2C }
  - { offsetInCU: 0x25725, offset: 0x25725, size: 0x8, addend: 0x0, symName: __ZNSt3__122__tree_node_destructorINS_9allocatorINS_11__tree_nodeINS_12__value_typeIciEEPvEEEEEC1B8ue170006ERS7_b, symObjAddr: 0xF42C, symBinAddr: 0x10001074C, symSize: 0x48 }
  - { offsetInCU: 0x25773, offset: 0x25773, size: 0x8, addend: 0x0, symName: __ZNSt3__110unique_ptrINS_11__tree_nodeINS_12__value_typeIciEEPvEENS_22__tree_node_destructorINS_9allocatorIS5_EEEEEC1B8ue170006ILb1EvEEPS5_NS_16__dependent_typeINS_27__unique_ptr_deleter_sfinaeIS9_EEXT_EE20__good_rval_ref_typeE, symObjAddr: 0xF474, symBinAddr: 0x100010794, symSize: 0x3C }
  - { offsetInCU: 0x257C4, offset: 0x257C4, size: 0x8, addend: 0x0, symName: __ZNSt3__116allocator_traitsINS_9allocatorINS_11__tree_nodeINS_12__value_typeIciEEPvEEEEE9constructB8ue170006INS_4pairIKciEEJRKNS_21piecewise_construct_tENS_5tupleIJRSB_EEENSG_IJEEEEvEEvRS7_PT_DpOT0_, symObjAddr: 0xF4B0, symBinAddr: 0x1000107D0, symSize: 0x44 }
  - { offsetInCU: 0x25843, offset: 0x25843, size: 0x8, addend: 0x0, symName: __ZNKSt3__110unique_ptrINS_11__tree_nodeINS_12__value_typeIciEEPvEENS_22__tree_node_destructorINS_9allocatorIS5_EEEEEptB8ue170006Ev, symObjAddr: 0xF4F4, symBinAddr: 0x100010814, symSize: 0x28 }
  - { offsetInCU: 0x25869, offset: 0x25869, size: 0x8, addend: 0x0, symName: __ZNSt3__110unique_ptrINS_11__tree_nodeINS_12__value_typeIciEEPvEENS_22__tree_node_destructorINS_9allocatorIS5_EEEEE11get_deleterB8ue170006Ev, symObjAddr: 0xF51C, symBinAddr: 0x10001083C, symSize: 0x24 }
  - { offsetInCU: 0x2588F, offset: 0x2588F, size: 0x8, addend: 0x0, symName: __ZNSt3__19allocatorINS_11__tree_nodeINS_12__value_typeIciEEPvEEE8allocateB8ue170006Em, symObjAddr: 0xF540, symBinAddr: 0x100010860, symSize: 0x5C }
  - { offsetInCU: 0x258CE, offset: 0x258CE, size: 0x8, addend: 0x0, symName: __ZNSt3__116allocator_traitsINS_9allocatorINS_11__tree_nodeINS_12__value_typeIciEEPvEEEEE8max_sizeB8ue170006IS7_vEEmRKS7_, symObjAddr: 0xF59C, symBinAddr: 0x1000108BC, symSize: 0x24 }
  - { offsetInCU: 0x258FC, offset: 0x258FC, size: 0x8, addend: 0x0, symName: __ZNKSt3__19allocatorINS_11__tree_nodeINS_12__value_typeIciEEPvEEE8max_sizeB8ue170006Ev, symObjAddr: 0xF5C0, symBinAddr: 0x1000108E0, symSize: 0x18 }
  - { offsetInCU: 0x25922, offset: 0x25922, size: 0x8, addend: 0x0, symName: __ZNSt3__122__tree_node_destructorINS_9allocatorINS_11__tree_nodeINS_12__value_typeIciEEPvEEEEEC2B8ue170006ERS7_b, symObjAddr: 0xF5D8, symBinAddr: 0x1000108F8, symSize: 0x38 }
  - { offsetInCU: 0x2596A, offset: 0x2596A, size: 0x8, addend: 0x0, symName: __ZNSt3__110unique_ptrINS_11__tree_nodeINS_12__value_typeIciEEPvEENS_22__tree_node_destructorINS_9allocatorIS5_EEEEEC2B8ue170006ILb1EvEEPS5_NS_16__dependent_typeINS_27__unique_ptr_deleter_sfinaeIS9_EEXT_EE20__good_rval_ref_typeE, symObjAddr: 0xF610, symBinAddr: 0x100010930, symSize: 0x48 }
  - { offsetInCU: 0x259BB, offset: 0x259BB, size: 0x8, addend: 0x0, symName: __ZNSt3__117__compressed_pairIPNS_11__tree_nodeINS_12__value_typeIciEEPvEENS_22__tree_node_destructorINS_9allocatorIS5_EEEEEC1B8ue170006IRS6_SA_EEOT_OT0_, symObjAddr: 0xF658, symBinAddr: 0x100010978, symSize: 0x3C }
  - { offsetInCU: 0x25A13, offset: 0x25A13, size: 0x8, addend: 0x0, symName: __ZNSt3__117__compressed_pairIPNS_11__tree_nodeINS_12__value_typeIciEEPvEENS_22__tree_node_destructorINS_9allocatorIS5_EEEEEC2B8ue170006IRS6_SA_EEOT_OT0_, symObjAddr: 0xF694, symBinAddr: 0x1000109B4, symSize: 0x48 }
  - { offsetInCU: 0x25A6B, offset: 0x25A6B, size: 0x8, addend: 0x0, symName: __ZNSt3__122__compressed_pair_elemIPNS_11__tree_nodeINS_12__value_typeIciEEPvEELi0ELb0EEC2B8ue170006IRS6_vEEOT_, symObjAddr: 0xF6DC, symBinAddr: 0x1000109FC, symSize: 0x24 }
  - { offsetInCU: 0x25AAD, offset: 0x25AAD, size: 0x8, addend: 0x0, symName: __ZNSt3__122__compressed_pair_elemINS_22__tree_node_destructorINS_9allocatorINS_11__tree_nodeINS_12__value_typeIciEEPvEEEEEELi1ELb0EEC2B8ue170006IS9_vEEOT_, symObjAddr: 0xF700, symBinAddr: 0x100010A20, symSize: 0x24 }
  - { offsetInCU: 0x25AEF, offset: 0x25AEF, size: 0x8, addend: 0x0, symName: __ZNSt3__19allocatorINS_11__tree_nodeINS_12__value_typeIciEEPvEEE9constructB8ue170006INS_4pairIKciEEJRKNS_21piecewise_construct_tENS_5tupleIJRS9_EEENSE_IJEEEEEEvPT_DpOT0_, symObjAddr: 0xF724, symBinAddr: 0x100010A44, symSize: 0x44 }
  - { offsetInCU: 0x25B6B, offset: 0x25B6B, size: 0x8, addend: 0x0, symName: __ZNSt3__14pairIKciEC1B8ue170006IJRS1_EJEEENS_21piecewise_construct_tENS_5tupleIJDpT_EEENS6_IJDpT0_EEE, symObjAddr: 0xF768, symBinAddr: 0x100010A88, symSize: 0x44 }
  - { offsetInCU: 0x25BD2, offset: 0x25BD2, size: 0x8, addend: 0x0, symName: __ZNSt3__14pairIKciEC1B8ue170006IJRS1_EJEJLm0EEJEEENS_21piecewise_construct_tERNS_5tupleIJDpT_EEERNS6_IJDpT0_EEENS_15__tuple_indicesIJXspT1_EEEENSF_IJXspT2_EEEE, symObjAddr: 0xF7AC, symBinAddr: 0x100010ACC, symSize: 0x3C }
  - { offsetInCU: 0x25C5F, offset: 0x25C5F, size: 0x8, addend: 0x0, symName: __ZNSt3__14pairIKciEC2B8ue170006IJRS1_EJEJLm0EEJEEENS_21piecewise_construct_tERNS_5tupleIJDpT_EEERNS6_IJDpT0_EEENS_15__tuple_indicesIJXspT1_EEEENSF_IJXspT2_EEEE, symObjAddr: 0xF7E8, symBinAddr: 0x100010B08, symSize: 0x48 }
  - { offsetInCU: 0x25CEC, offset: 0x25CEC, size: 0x8, addend: 0x0, symName: __ZNSt3__112__tuple_leafILm0ERKcLb0EE3getB8ue170006Ev, symObjAddr: 0xF854, symBinAddr: 0x100010B74, symSize: 0x18 }
  - { offsetInCU: 0x25D12, offset: 0x25D12, size: 0x8, addend: 0x0, symName: __ZNKSt3__117__compressed_pairIPNS_11__tree_nodeINS_12__value_typeIciEEPvEENS_22__tree_node_destructorINS_9allocatorIS5_EEEEE5firstB8ue170006Ev, symObjAddr: 0xF86C, symBinAddr: 0x100010B8C, symSize: 0x24 }
  - { offsetInCU: 0x25D38, offset: 0x25D38, size: 0x8, addend: 0x0, symName: __ZNKSt3__122__compressed_pair_elemIPNS_11__tree_nodeINS_12__value_typeIciEEPvEELi0ELb0EE5__getB8ue170006Ev, symObjAddr: 0xF890, symBinAddr: 0x100010BB0, symSize: 0x14 }
  - { offsetInCU: 0x25D5E, offset: 0x25D5E, size: 0x8, addend: 0x0, symName: __ZNSt3__117__compressed_pairIPNS_11__tree_nodeINS_12__value_typeIciEEPvEENS_22__tree_node_destructorINS_9allocatorIS5_EEEEE6secondB8ue170006Ev, symObjAddr: 0xF8A4, symBinAddr: 0x100010BC4, symSize: 0x28 }
  - { offsetInCU: 0x25D84, offset: 0x25D84, size: 0x8, addend: 0x0, symName: __ZNSt3__122__compressed_pair_elemINS_22__tree_node_destructorINS_9allocatorINS_11__tree_nodeINS_12__value_typeIciEEPvEEEEEELi1ELb0EE5__getB8ue170006Ev, symObjAddr: 0xF8CC, symBinAddr: 0x100010BEC, symSize: 0x14 }
  - { offsetInCU: 0x25DAA, offset: 0x25DAA, size: 0x8, addend: 0x0, symName: __ZNSt3__16__treeINS_12__value_typeIciEENS_19__map_value_compareIcS2_NS_4lessIcEELb1EEENS_9allocatorIS2_EEE4sizeB8ue170006Ev, symObjAddr: 0xF8E0, symBinAddr: 0x100010C00, symSize: 0x28 }
  - { offsetInCU: 0x25DD0, offset: 0x25DD0, size: 0x8, addend: 0x0, symName: __ZNSt3__117__compressed_pairImNS_19__map_value_compareIcNS_12__value_typeIciEENS_4lessIcEELb1EEEE5firstB8ue170006Ev, symObjAddr: 0xF908, symBinAddr: 0x100010C28, symSize: 0x24 }
  - { offsetInCU: 0x25DF6, offset: 0x25DF6, size: 0x8, addend: 0x0, symName: __ZNSt3__117__compressed_pairIPNS_11__tree_nodeINS_12__value_typeIciEEPvEENS_22__tree_node_destructorINS_9allocatorIS5_EEEEE5firstB8ue170006Ev, symObjAddr: 0xF92C, symBinAddr: 0x100010C4C, symSize: 0x24 }
  - { offsetInCU: 0x25E1C, offset: 0x25E1C, size: 0x8, addend: 0x0, symName: __ZNSt3__122__compressed_pair_elemIPNS_11__tree_nodeINS_12__value_typeIciEEPvEELi0ELb0EE5__getB8ue170006Ev, symObjAddr: 0xF950, symBinAddr: 0x100010C70, symSize: 0x14 }
  - { offsetInCU: 0x25E42, offset: 0x25E42, size: 0x8, addend: 0x0, symName: __ZNSt3__110unique_ptrINS_11__tree_nodeINS_12__value_typeIciEEPvEENS_22__tree_node_destructorINS_9allocatorIS5_EEEEED2B8ue170006Ev, symObjAddr: 0xF964, symBinAddr: 0x100010C84, symSize: 0x30 }
  - { offsetInCU: 0x25E6C, offset: 0x25E6C, size: 0x8, addend: 0x0, symName: __ZNSt3__110unique_ptrINS_11__tree_nodeINS_12__value_typeIciEEPvEENS_22__tree_node_destructorINS_9allocatorIS5_EEEEE5resetB8ue170006EPS5_, symObjAddr: 0xF994, symBinAddr: 0x100010CB4, symSize: 0x78 }
  - { offsetInCU: 0x25EB0, offset: 0x25EB0, size: 0x8, addend: 0x0, symName: __ZNSt3__122__tree_node_destructorINS_9allocatorINS_11__tree_nodeINS_12__value_typeIciEEPvEEEEEclB8ue170006EPS6_, symObjAddr: 0xFA0C, symBinAddr: 0x100010D2C, symSize: 0x88 }
  - { offsetInCU: 0x25EE5, offset: 0x25EE5, size: 0x8, addend: 0x0, symName: __ZNSt3__115__tree_iteratorINS_12__value_typeIciEEPNS_11__tree_nodeIS2_PvEElEC2B8ue170006ES6_, symObjAddr: 0xFA94, symBinAddr: 0x100010DB4, symSize: 0x20 }
  - { offsetInCU: 0x25F1E, offset: 0x25F1E, size: 0x8, addend: 0x0, symName: __ZNSt3__14pairINS_15__tree_iteratorINS_12__value_typeIciEEPNS_11__tree_nodeIS3_PvEElEEbEC2B8ue170006IS8_RbLS5_0EEEOT_OT0_, symObjAddr: 0xFAB4, symBinAddr: 0x100010DD4, symSize: 0x38 }
  - { offsetInCU: 0x25F7C, offset: 0x25F7C, size: 0x8, addend: 0x0, symName: __ZNSt3__15tupleIJRKcEEC1B8ue170006INS_4_AndELi0EEES2_, symObjAddr: 0xFAEC, symBinAddr: 0x100010E0C, symSize: 0x34 }
  - { offsetInCU: 0x25FC4, offset: 0x25FC4, size: 0x8, addend: 0x0, symName: __ZNSt3__15tupleIJRKcEEC2B8ue170006INS_4_AndELi0EEES2_, symObjAddr: 0xFB20, symBinAddr: 0x100010E40, symSize: 0x34 }
  - { offsetInCU: 0x2600C, offset: 0x2600C, size: 0x8, addend: 0x0, symName: __ZNSt3__112__tuple_implINS_15__tuple_indicesIJLm0EEEEJRKcEEC1B8ue170006IJLm0EEJS4_EJEJEJS4_EEENS1_IJXspT_EEEENS_13__tuple_typesIJDpT0_EEENS1_IJXspT1_EEEENS8_IJDpT2_EEEDpOT3_, symObjAddr: 0xFB54, symBinAddr: 0x100010E74, symSize: 0x34 }
  - { offsetInCU: 0x2609D, offset: 0x2609D, size: 0x8, addend: 0x0, symName: __ZNSt3__112__tuple_implINS_15__tuple_indicesIJLm0EEEEJRKcEEC2B8ue170006IJLm0EEJS4_EJEJEJS4_EEENS1_IJXspT_EEEENS_13__tuple_typesIJDpT0_EEENS1_IJXspT1_EEEENS8_IJDpT2_EEEDpOT3_, symObjAddr: 0xFB88, symBinAddr: 0x100010EA8, symSize: 0x34 }
  - { offsetInCU: 0x2612E, offset: 0x2612E, size: 0x8, addend: 0x0, symName: __ZNSt3__112__tuple_leafILm0ERKcLb0EEC2B8ue170006IS2_vEEOT_, symObjAddr: 0xFBBC, symBinAddr: 0x100010EDC, symSize: 0x20 }
  - { offsetInCU: 0x26171, offset: 0x26171, size: 0x8, addend: 0x0, symName: __ZNSt3__16__treeINS_12__value_typeIciEENS_19__map_value_compareIcS2_NS_4lessIcEELb1EEENS_9allocatorIS2_EEE5beginB8ue170006Ev, symObjAddr: 0xFBDC, symBinAddr: 0x100010EFC, symSize: 0x34 }
  - { offsetInCU: 0x26197, offset: 0x26197, size: 0x8, addend: 0x0, symName: __ZNSt3__114__map_iteratorINS_15__tree_iteratorINS_12__value_typeIciEEPNS_11__tree_nodeIS3_PvEElEEEC1B8ue170006ES8_, symObjAddr: 0xFC10, symBinAddr: 0x100010F30, symSize: 0x34 }
  - { offsetInCU: 0x261D0, offset: 0x261D0, size: 0x8, addend: 0x0, symName: __ZNSt3__115__tree_iteratorINS_12__value_typeIciEEPNS_11__tree_nodeIS2_PvEElEC1B8ue170006EPNS_15__tree_end_nodeIPNS_16__tree_node_baseIS4_EEEE, symObjAddr: 0xFC44, symBinAddr: 0x100010F64, symSize: 0x34 }
  - { offsetInCU: 0x26209, offset: 0x26209, size: 0x8, addend: 0x0, symName: __ZNSt3__115__tree_iteratorINS_12__value_typeIciEEPNS_11__tree_nodeIS2_PvEElEC2B8ue170006EPNS_15__tree_end_nodeIPNS_16__tree_node_baseIS4_EEEE, symObjAddr: 0xFC78, symBinAddr: 0x100010F98, symSize: 0x20 }
  - { offsetInCU: 0x26242, offset: 0x26242, size: 0x8, addend: 0x0, symName: __ZNSt3__114__map_iteratorINS_15__tree_iteratorINS_12__value_typeIciEEPNS_11__tree_nodeIS3_PvEElEEEC2B8ue170006ES8_, symObjAddr: 0xFC98, symBinAddr: 0x100010FB8, symSize: 0x20 }
  - { offsetInCU: 0x2627B, offset: 0x2627B, size: 0x8, addend: 0x0, symName: __ZNSt3__16__treeINS_12__value_typeIciEENS_19__map_value_compareIcS2_NS_4lessIcEELb1EEENS_9allocatorIS2_EEE3endB8ue170006Ev, symObjAddr: 0xFCB8, symBinAddr: 0x100010FD8, symSize: 0x34 }
  - { offsetInCU: 0x262A1, offset: 0x262A1, size: 0x8, addend: 0x0, symName: __ZNSt3__114pointer_traitsIPNS_4pairIKciEEE10pointer_toB8ue170006ERS3_, symObjAddr: 0xFCEC, symBinAddr: 0x10001100C, symSize: 0x14 }
  - { offsetInCU: 0x262C4, offset: 0x262C4, size: 0x8, addend: 0x0, symName: __ZNSt3__112basic_stringIcNS_11char_traitsIcEENS_9allocatorIcEEEC2B8ue170006ILi0EEEPKc, symObjAddr: 0xFD00, symBinAddr: 0x100011020, symSize: 0x58 }
  - { offsetInCU: 0x26303, offset: 0x26303, size: 0x8, addend: 0x0, symName: __ZNSt3__13mapINS_4pairIiiEE8SamEntryNS_4lessIS2_EENS_9allocatorINS1_IKS2_S3_EEEEEC2B8ue170006Ev, symObjAddr: 0xFD58, symBinAddr: 0x100011078, symSize: 0x40 }
  - { offsetInCU: 0x2632D, offset: 0x2632D, size: 0x8, addend: 0x0, symName: __ZNSt3__119__map_value_compareINS_4pairIiiEENS_12__value_typeIS2_8SamEntryEENS_4lessIS2_EELb1EEC1B8ue170006ES7_, symObjAddr: 0xFD98, symBinAddr: 0x1000110B8, symSize: 0x2C }
  - { offsetInCU: 0x26366, offset: 0x26366, size: 0x8, addend: 0x0, symName: __ZNSt3__16__treeINS_12__value_typeINS_4pairIiiEE8SamEntryEENS_19__map_value_compareIS3_S5_NS_4lessIS3_EELb1EEENS_9allocatorIS5_EEEC1ERKS9_, symObjAddr: 0xFDC4, symBinAddr: 0x1000110E4, symSize: 0x34 }
  - { offsetInCU: 0x263A1, offset: 0x263A1, size: 0x8, addend: 0x0, symName: __ZNSt3__119__map_value_compareINS_4pairIiiEENS_12__value_typeIS2_8SamEntryEENS_4lessIS2_EELb1EEC2B8ue170006ES7_, symObjAddr: 0xFDF8, symBinAddr: 0x100011118, symSize: 0x14 }
  - { offsetInCU: 0x263DA, offset: 0x263DA, size: 0x8, addend: 0x0, symName: __ZNSt3__16__treeINS_12__value_typeINS_4pairIiiEE8SamEntryEENS_19__map_value_compareIS3_S5_NS_4lessIS3_EELb1EEENS_9allocatorIS5_EEEC2ERKS9_, symObjAddr: 0xFE0C, symBinAddr: 0x10001112C, symSize: 0x7C }
  - { offsetInCU: 0x26415, offset: 0x26415, size: 0x8, addend: 0x0, symName: __ZNSt3__117__compressed_pairImNS_19__map_value_compareINS_4pairIiiEENS_12__value_typeIS3_8SamEntryEENS_4lessIS3_EELb1EEEEC1B8ue170006IiRKS9_EEOT_OT0_, symObjAddr: 0xFE88, symBinAddr: 0x1000111A8, symSize: 0x3C }
  - { offsetInCU: 0x2646D, offset: 0x2646D, size: 0x8, addend: 0x0, symName: __ZNSt3__16__treeINS_12__value_typeINS_4pairIiiEE8SamEntryEENS_19__map_value_compareIS3_S5_NS_4lessIS3_EELb1EEENS_9allocatorIS5_EEE10__end_nodeB8ue170006Ev, symObjAddr: 0xFEC4, symBinAddr: 0x1000111E4, symSize: 0x2C }
  - { offsetInCU: 0x26493, offset: 0x26493, size: 0x8, addend: 0x0, symName: __ZNSt3__16__treeINS_12__value_typeINS_4pairIiiEE8SamEntryEENS_19__map_value_compareIS3_S5_NS_4lessIS3_EELb1EEENS_9allocatorIS5_EEE12__begin_nodeB8ue170006Ev, symObjAddr: 0xFEF0, symBinAddr: 0x100011210, symSize: 0x14 }
  - { offsetInCU: 0x264B9, offset: 0x264B9, size: 0x8, addend: 0x0, symName: __ZNSt3__117__compressed_pairImNS_19__map_value_compareINS_4pairIiiEENS_12__value_typeIS3_8SamEntryEENS_4lessIS3_EELb1EEEEC2B8ue170006IiRKS9_EEOT_OT0_, symObjAddr: 0xFF04, symBinAddr: 0x100011224, symSize: 0x44 }
  - { offsetInCU: 0x26511, offset: 0x26511, size: 0x8, addend: 0x0, symName: __ZNSt3__122__compressed_pair_elemINS_19__map_value_compareINS_4pairIiiEENS_12__value_typeIS3_8SamEntryEENS_4lessIS3_EELb1EEELi1ELb1EEC2B8ue170006IRKS9_vEEOT_, symObjAddr: 0xFF48, symBinAddr: 0x100011268, symSize: 0x18 }
  - { offsetInCU: 0x26553, offset: 0x26553, size: 0x8, addend: 0x0, symName: __ZNSt3__13mapINS_4pairIiiEE8SamEntryNS_4lessIS2_EENS_9allocatorINS1_IKS2_S3_EEEEED2B8ue170006Ev, symObjAddr: 0xFF60, symBinAddr: 0x100011280, symSize: 0x2C }
  - { offsetInCU: 0x2657D, offset: 0x2657D, size: 0x8, addend: 0x0, symName: __ZNSt3__16__treeINS_12__value_typeINS_4pairIiiEE8SamEntryEENS_19__map_value_compareIS3_S5_NS_4lessIS3_EELb1EEENS_9allocatorIS5_EEED1Ev, symObjAddr: 0xFF8C, symBinAddr: 0x1000112AC, symSize: 0x2C }
  - { offsetInCU: 0x265A9, offset: 0x265A9, size: 0x8, addend: 0x0, symName: __ZNSt3__16__treeINS_12__value_typeINS_4pairIiiEE8SamEntryEENS_19__map_value_compareIS3_S5_NS_4lessIS3_EELb1EEENS_9allocatorIS5_EEED2Ev, symObjAddr: 0xFFB8, symBinAddr: 0x1000112D8, symSize: 0x38 }
  - { offsetInCU: 0x265D5, offset: 0x265D5, size: 0x8, addend: 0x0, symName: __ZNSt3__16__treeINS_12__value_typeINS_4pairIiiEE8SamEntryEENS_19__map_value_compareIS3_S5_NS_4lessIS3_EELb1EEENS_9allocatorIS5_EEE7destroyEPNS_11__tree_nodeIS5_PvEE, symObjAddr: 0xFFF0, symBinAddr: 0x100011310, symSize: 0xA8 }
  - { offsetInCU: 0x26621, offset: 0x26621, size: 0x8, addend: 0x0, symName: __ZNKSt3__16__treeINS_12__value_typeINS_4pairIiiEE8SamEntryEENS_19__map_value_compareIS3_S5_NS_4lessIS3_EELb1EEENS_9allocatorIS5_EEE6__rootB8ue170006Ev, symObjAddr: 0x10098, symBinAddr: 0x1000113B8, symSize: 0x28 }
  - { offsetInCU: 0x26647, offset: 0x26647, size: 0x8, addend: 0x0, symName: __ZNSt3__16__treeINS_12__value_typeINS_4pairIiiEE8SamEntryEENS_19__map_value_compareIS3_S5_NS_4lessIS3_EELb1EEENS_9allocatorIS5_EEE12__node_allocB8ue170006Ev, symObjAddr: 0x100C0, symBinAddr: 0x1000113E0, symSize: 0x28 }
  - { offsetInCU: 0x2666D, offset: 0x2666D, size: 0x8, addend: 0x0, symName: __ZNKSt3__16__treeINS_12__value_typeINS_4pairIiiEE8SamEntryEENS_19__map_value_compareIS3_S5_NS_4lessIS3_EELb1EEENS_9allocatorIS5_EEE10__end_nodeB8ue170006Ev, symObjAddr: 0x100E8, symBinAddr: 0x100011408, symSize: 0x2C }
  - { offsetInCU: 0x26693, offset: 0x26693, size: 0x8, addend: 0x0, symName: __ZNSt3__16vectorI8SamEntryNS_9allocatorIS1_EEE11__make_iterB8ue170006EPS1_, symObjAddr: 0x10114, symBinAddr: 0x100011434, symSize: 0x30 }
  - { offsetInCU: 0x266C8, offset: 0x266C8, size: 0x8, addend: 0x0, symName: __ZNSt3__111__wrap_iterIP8SamEntryEC1B8ue170006ES2_, symObjAddr: 0x10144, symBinAddr: 0x100011464, symSize: 0x34 }
  - { offsetInCU: 0x26700, offset: 0x26700, size: 0x8, addend: 0x0, symName: __ZNSt3__111__wrap_iterIP8SamEntryEC2B8ue170006ES2_, symObjAddr: 0x10178, symBinAddr: 0x100011498, symSize: 0x20 }
  - { offsetInCU: 0x26738, offset: 0x26738, size: 0x8, addend: 0x0, symName: __ZNSt3__16__treeINS_12__value_typeINS_4pairIiiEE8SamEntryEENS_19__map_value_compareIS3_S5_NS_4lessIS3_EELb1EEENS_9allocatorIS5_EEE25__emplace_unique_key_argsIS3_JRKNS_21piecewise_construct_tENS_5tupleIJOS3_EEENSH_IJEEEEEENS2_INS_15__tree_iteratorIS5_PNS_11__tree_nodeIS5_PvEElEEbEERKT_DpOT0_, symObjAddr: 0x10198, symBinAddr: 0x1000114B8, symSize: 0x100 }
  - { offsetInCU: 0x2680E, offset: 0x2680E, size: 0x8, addend: 0x0, symName: __ZNSt3__16__treeINS_12__value_typeINS_4pairIiiEE8SamEntryEENS_19__map_value_compareIS3_S5_NS_4lessIS3_EELb1EEENS_9allocatorIS5_EEE12__find_equalIS3_EERPNS_16__tree_node_baseIPvEERPNS_15__tree_end_nodeISH_EERKT_, symObjAddr: 0x102C4, symBinAddr: 0x1000115E4, symSize: 0x184 }
  - { offsetInCU: 0x2687B, offset: 0x2687B, size: 0x8, addend: 0x0, symName: __ZNSt3__16__treeINS_12__value_typeINS_4pairIiiEE8SamEntryEENS_19__map_value_compareIS3_S5_NS_4lessIS3_EELb1EEENS_9allocatorIS5_EEE16__construct_nodeIJRKNS_21piecewise_construct_tENS_5tupleIJOS3_EEENSH_IJEEEEEENS_10unique_ptrINS_11__tree_nodeIS5_PvEENS_22__tree_node_destructorINSA_ISO_EEEEEEDpOT_, symObjAddr: 0x10448, symBinAddr: 0x100011768, symSize: 0x120 }
  - { offsetInCU: 0x26904, offset: 0x26904, size: 0x8, addend: 0x0, symName: __ZNSt3__16__treeINS_12__value_typeINS_4pairIiiEE8SamEntryEENS_19__map_value_compareIS3_S5_NS_4lessIS3_EELb1EEENS_9allocatorIS5_EEE16__insert_node_atEPNS_15__tree_end_nodeIPNS_16__tree_node_baseIPvEEEERSH_SH_, symObjAddr: 0x10568, symBinAddr: 0x100011888, symSize: 0xCC }
  - { offsetInCU: 0x26959, offset: 0x26959, size: 0x8, addend: 0x0, symName: __ZNKSt3__16__treeINS_12__value_typeINS_4pairIiiEE8SamEntryEENS_19__map_value_compareIS3_S5_NS_4lessIS3_EELb1EEENS_9allocatorIS5_EEE10__root_ptrB8ue170006Ev, symObjAddr: 0x10634, symBinAddr: 0x100011954, symSize: 0x24 }
  - { offsetInCU: 0x2697F, offset: 0x2697F, size: 0x8, addend: 0x0, symName: __ZNSt3__16__treeINS_12__value_typeINS_4pairIiiEE8SamEntryEENS_19__map_value_compareIS3_S5_NS_4lessIS3_EELb1EEENS_9allocatorIS5_EEE10value_compB8ue170006Ev, symObjAddr: 0x10658, symBinAddr: 0x100011978, symSize: 0x28 }
  - { offsetInCU: 0x269A5, offset: 0x269A5, size: 0x8, addend: 0x0, symName: __ZNKSt3__119__map_value_compareINS_4pairIiiEENS_12__value_typeIS2_8SamEntryEENS_4lessIS2_EELb1EEclB8ue170006ERKS2_RKS5_, symObjAddr: 0x10680, symBinAddr: 0x1000119A0, symSize: 0x50 }
  - { offsetInCU: 0x269E9, offset: 0x269E9, size: 0x8, addend: 0x0, symName: __ZNKSt3__119__map_value_compareINS_4pairIiiEENS_12__value_typeIS2_8SamEntryEENS_4lessIS2_EELb1EEclB8ue170006ERKS5_RKS2_, symObjAddr: 0x106D0, symBinAddr: 0x1000119F0, symSize: 0x48 }
  - { offsetInCU: 0x26A2D, offset: 0x26A2D, size: 0x8, addend: 0x0, symName: __ZNSt3__117__compressed_pairImNS_19__map_value_compareINS_4pairIiiEENS_12__value_typeIS3_8SamEntryEENS_4lessIS3_EELb1EEEE6secondB8ue170006Ev, symObjAddr: 0x10718, symBinAddr: 0x100011A38, symSize: 0x24 }
  - { offsetInCU: 0x26A53, offset: 0x26A53, size: 0x8, addend: 0x0, symName: __ZNSt3__122__compressed_pair_elemINS_19__map_value_compareINS_4pairIiiEENS_12__value_typeIS3_8SamEntryEENS_4lessIS3_EELb1EEELi1ELb1EE5__getB8ue170006Ev, symObjAddr: 0x1073C, symBinAddr: 0x100011A5C, symSize: 0x14 }
  - { offsetInCU: 0x26A79, offset: 0x26A79, size: 0x8, addend: 0x0, symName: __ZNKSt3__14lessINS_4pairIiiEEEclB8ue170006ERKS2_S5_, symObjAddr: 0x10750, symBinAddr: 0x100011A70, symSize: 0x34 }
  - { offsetInCU: 0x26ABD, offset: 0x26ABD, size: 0x8, addend: 0x0, symName: __ZNSt3__116allocator_traitsINS_9allocatorINS_11__tree_nodeINS_12__value_typeINS_4pairIiiEE8SamEntryEEPvEEEEE9constructB8ue170006INS4_IKS5_S6_EEJRKNS_21piecewise_construct_tENS_5tupleIJOS5_EEENSI_IJEEEEvEEvRSA_PT_DpOT0_, symObjAddr: 0x1081C, symBinAddr: 0x100011B3C, symSize: 0x44 }
  - { offsetInCU: 0x26B3C, offset: 0x26B3C, size: 0x8, addend: 0x0, symName: __ZNSt3__19allocatorINS_11__tree_nodeINS_12__value_typeINS_4pairIiiEE8SamEntryEEPvEEE9constructB8ue170006INS3_IKS4_S5_EEJRKNS_21piecewise_construct_tENS_5tupleIJOS4_EEENSG_IJEEEEEEvPT_DpOT0_, symObjAddr: 0x10860, symBinAddr: 0x100011B80, symSize: 0x44 }
  - { offsetInCU: 0x26BB8, offset: 0x26BB8, size: 0x8, addend: 0x0, symName: __ZNSt3__14pairIKNS0_IiiEE8SamEntryEC1B8ue170006IJOS1_EJEEENS_21piecewise_construct_tENS_5tupleIJDpT_EEENS8_IJDpT0_EEE, symObjAddr: 0x108A4, symBinAddr: 0x100011BC4, symSize: 0x44 }
  - { offsetInCU: 0x26C1F, offset: 0x26C1F, size: 0x8, addend: 0x0, symName: __ZNSt3__14pairIKNS0_IiiEE8SamEntryEC1B8ue170006IJOS1_EJEJLm0EEJEEENS_21piecewise_construct_tERNS_5tupleIJDpT_EEERNS8_IJDpT0_EEENS_15__tuple_indicesIJXspT1_EEEENSH_IJXspT2_EEEE, symObjAddr: 0x108E8, symBinAddr: 0x100011C08, symSize: 0x3C }
  - { offsetInCU: 0x26CAC, offset: 0x26CAC, size: 0x8, addend: 0x0, symName: __ZNSt3__14pairIKNS0_IiiEE8SamEntryEC2B8ue170006IJOS1_EJEJLm0EEJEEENS_21piecewise_construct_tERNS_5tupleIJDpT_EEERNS8_IJDpT0_EEENS_15__tuple_indicesIJXspT1_EEEENSH_IJXspT2_EEEE, symObjAddr: 0x10924, symBinAddr: 0x100011C44, symSize: 0x60 }
  - { offsetInCU: 0x26D39, offset: 0x26D39, size: 0x8, addend: 0x0, symName: __ZNSt3__112__tuple_leafILm0EONS_4pairIiiEELb0EE3getB8ue170006Ev, symObjAddr: 0x109A8, symBinAddr: 0x100011CC8, symSize: 0x18 }
  - { offsetInCU: 0x26D5F, offset: 0x26D5F, size: 0x8, addend: 0x0, symName: __ZNSt3__16__treeINS_12__value_typeINS_4pairIiiEE8SamEntryEENS_19__map_value_compareIS3_S5_NS_4lessIS3_EELb1EEENS_9allocatorIS5_EEE4sizeB8ue170006Ev, symObjAddr: 0x109C0, symBinAddr: 0x100011CE0, symSize: 0x28 }
  - { offsetInCU: 0x26D85, offset: 0x26D85, size: 0x8, addend: 0x0, symName: __ZNSt3__117__compressed_pairImNS_19__map_value_compareINS_4pairIiiEENS_12__value_typeIS3_8SamEntryEENS_4lessIS3_EELb1EEEE5firstB8ue170006Ev, symObjAddr: 0x109E8, symBinAddr: 0x100011D08, symSize: 0x24 }
  - { offsetInCU: 0x26DAB, offset: 0x26DAB, size: 0x8, addend: 0x0, symName: __ZNSt3__15tupleIJONS_4pairIiiEEEEC1B8ue170006IJS2_ELi0EEEDpOT_, symObjAddr: 0x10A0C, symBinAddr: 0x100011D2C, symSize: 0x34 }
  - { offsetInCU: 0x26DF5, offset: 0x26DF5, size: 0x8, addend: 0x0, symName: __ZNSt3__15tupleIJONS_4pairIiiEEEEC2B8ue170006IJS2_ELi0EEEDpOT_, symObjAddr: 0x10A40, symBinAddr: 0x100011D60, symSize: 0x34 }
  - { offsetInCU: 0x26E3F, offset: 0x26E3F, size: 0x8, addend: 0x0, symName: __ZNSt3__112__tuple_implINS_15__tuple_indicesIJLm0EEEEJONS_4pairIiiEEEEC1B8ue170006IJLm0EEJS5_EJEJEJS4_EEENS1_IJXspT_EEEENS_13__tuple_typesIJDpT0_EEENS1_IJXspT1_EEEENS9_IJDpT2_EEEDpOT3_, symObjAddr: 0x10A74, symBinAddr: 0x100011D94, symSize: 0x34 }
  - { offsetInCU: 0x26ED0, offset: 0x26ED0, size: 0x8, addend: 0x0, symName: __ZNSt3__112__tuple_implINS_15__tuple_indicesIJLm0EEEEJONS_4pairIiiEEEEC2B8ue170006IJLm0EEJS5_EJEJEJS4_EEENS1_IJXspT_EEEENS_13__tuple_typesIJDpT0_EEENS1_IJXspT1_EEEENS9_IJDpT2_EEEDpOT3_, symObjAddr: 0x10AA8, symBinAddr: 0x100011DC8, symSize: 0x34 }
  - { offsetInCU: 0x26F61, offset: 0x26F61, size: 0x8, addend: 0x0, symName: __ZNSt3__112__tuple_leafILm0EONS_4pairIiiEELb0EEC2B8ue170006IS2_vEEOT_, symObjAddr: 0x10ADC, symBinAddr: 0x100011DFC, symSize: 0x20 }
  - { offsetInCU: 0x26FA4, offset: 0x26FA4, size: 0x8, addend: 0x0, symName: __ZNSt3__16__treeINS_12__value_typeINS_4pairIiiEE8SamEntryEENS_19__map_value_compareIS3_S5_NS_4lessIS3_EELb1EEENS_9allocatorIS5_EEE5beginB8ue170006Ev, symObjAddr: 0x10AFC, symBinAddr: 0x100011E1C, symSize: 0x34 }
  - { offsetInCU: 0x26FCA, offset: 0x26FCA, size: 0x8, addend: 0x0, symName: __ZNSt3__16__treeINS_12__value_typeINS_4pairIiiEE8SamEntryEENS_19__map_value_compareIS3_S5_NS_4lessIS3_EELb1EEENS_9allocatorIS5_EEE3endB8ue170006Ev, symObjAddr: 0x10B30, symBinAddr: 0x100011E50, symSize: 0x34 }
  - { offsetInCU: 0x26FF0, offset: 0x26FF0, size: 0x8, addend: 0x0, symName: __ZNSt3__13mapINS_4pairIiiEE8SamEntry16ComparePositionsNS_9allocatorINS1_IKS2_S3_EEEEEC2B8ue170006INS_14__map_iteratorINS_15__tree_iteratorINS_12__value_typeIS2_S3_EEPNS_11__tree_nodeISE_PvEElEEEEEET_SL_RKS4_, symObjAddr: 0x10B64, symBinAddr: 0x100011E84, symSize: 0x94 }
  - { offsetInCU: 0x27050, offset: 0x27050, size: 0x8, addend: 0x0, symName: __ZNSt3__13mapINS_4pairIiiEE8SamEntry16ComparePositionsNS_9allocatorINS1_IKS2_S3_EEEEE6insertB8ue170006INS_14__map_iteratorINS_15__tree_iteratorINS_12__value_typeIS2_S3_EEPNS_11__tree_nodeISE_PvEElEEEEEEvT_SL_, symObjAddr: 0x10BF8, symBinAddr: 0x100011F18, symSize: 0x8C }
  - { offsetInCU: 0x270BA, offset: 0x270BA, size: 0x8, addend: 0x0, symName: __ZNKSt3__13mapINS_4pairIiiEE8SamEntry16ComparePositionsNS_9allocatorINS1_IKS2_S3_EEEEE4cendB8ue170006Ev, symObjAddr: 0x10C84, symBinAddr: 0x100011FA4, symSize: 0x2C }
  - { offsetInCU: 0x270E0, offset: 0x270E0, size: 0x8, addend: 0x0, symName: __ZNSt3__13mapINS_4pairIiiEE8SamEntry16ComparePositionsNS_9allocatorINS1_IKS2_S3_EEEEE6insertB8ue170006IRS7_vEENS_14__map_iteratorINS_15__tree_iteratorINS_12__value_typeIS2_S3_EEPNS_11__tree_nodeISF_PvEElEEEENS_20__map_const_iteratorINS_21__tree_const_iteratorISF_SJ_lEEEEOT_, symObjAddr: 0x10CB0, symBinAddr: 0x100011FD0, symSize: 0x50 }
  - { offsetInCU: 0x2712E, offset: 0x2712E, size: 0x8, addend: 0x0, symName: __ZNSt3__16__treeINS_12__value_typeINS_4pairIiiEE8SamEntryEENS_19__map_value_compareIS3_S5_16ComparePositionsLb1EEENS_9allocatorIS5_EEE15__insert_uniqueB8ue170006ENS_21__tree_const_iteratorIS5_PNS_11__tree_nodeIS5_PvEElEERKNS2_IKS3_S4_EE, symObjAddr: 0x10D00, symBinAddr: 0x100012020, symSize: 0x64 }
  - { offsetInCU: 0x27172, offset: 0x27172, size: 0x8, addend: 0x0, symName: __ZNSt3__16__treeINS_12__value_typeINS_4pairIiiEE8SamEntryEENS_19__map_value_compareIS3_S5_16ComparePositionsLb1EEENS_9allocatorIS5_EEE30__emplace_hint_unique_key_argsIS3_JRKNS2_IKS3_S4_EEEEENS2_INS_15__tree_iteratorIS5_PNS_11__tree_nodeIS5_PvEElEEbEENS_21__tree_const_iteratorIS5_SL_lEERKT_DpOT0_, symObjAddr: 0x10D64, symBinAddr: 0x100012084, symSize: 0x104 }
  - { offsetInCU: 0x2723E, offset: 0x2723E, size: 0x8, addend: 0x0, symName: __ZNSt3__16__treeINS_12__value_typeINS_4pairIiiEE8SamEntryEENS_19__map_value_compareIS3_S5_16ComparePositionsLb1EEENS_9allocatorIS5_EEE12__find_equalIS3_EERPNS_16__tree_node_baseIPvEENS_21__tree_const_iteratorIS5_PNS_11__tree_nodeIS5_SE_EElEERPNS_15__tree_end_nodeISG_EESH_RKT_, symObjAddr: 0x10E68, symBinAddr: 0x100012188, symSize: 0x304 }
  - { offsetInCU: 0x272E7, offset: 0x272E7, size: 0x8, addend: 0x0, symName: __ZNSt3__121__tree_const_iteratorINS_12__value_typeINS_4pairIiiEE8SamEntryEEPNS_11__tree_nodeIS5_PvEElEC1B8ue170006ENS_15__tree_iteratorIS5_S9_lEE, symObjAddr: 0x1116C, symBinAddr: 0x10001248C, symSize: 0x34 }
  - { offsetInCU: 0x27320, offset: 0x27320, size: 0x8, addend: 0x0, symName: __ZNKSt3__121__tree_const_iteratorINS_12__value_typeINS_4pairIiiEE8SamEntryEEPNS_11__tree_nodeIS5_PvEElEdeB8ue170006Ev, symObjAddr: 0x111A0, symBinAddr: 0x1000124C0, symSize: 0x28 }
  - { offsetInCU: 0x27346, offset: 0x27346, size: 0x8, addend: 0x0, symName: __ZNSt3__121__tree_const_iteratorINS_12__value_typeINS_4pairIiiEE8SamEntryEEPNS_11__tree_nodeIS5_PvEElEmmB8ue170006Ev, symObjAddr: 0x111C8, symBinAddr: 0x1000124E8, symSize: 0x38 }
  - { offsetInCU: 0x2736C, offset: 0x2736C, size: 0x8, addend: 0x0, symName: __ZNSt3__121__tree_const_iteratorINS_12__value_typeINS_4pairIiiEE8SamEntryEEPNS_11__tree_nodeIS5_PvEElEC2B8ue170006ENS_15__tree_iteratorIS5_S9_lEE, symObjAddr: 0x1123C, symBinAddr: 0x10001255C, symSize: 0x20 }
...
