---
triple:          'arm64-apple-darwin'
binary-path:     '/Users/teatisaj/bio2/Mutation-Detection-Using-Third-Generation-Sequencing/detector'
relocations:
  - { offsetInCU: 0x487C, offset: 0x487C, size: 0x8, addend: 0x0, symName: __ZNSt3__124__put_character_sequenceB8ue170006IcNS_11char_traitsIcEEEERNS_13basic_ostreamIT_T0_EES7_PKS4_m, symObjAddr: 0x45DC, symBinAddr: 0x100008A64, symSize: 0x1F4 }
  - { offsetInCU: 0xF378, offset: 0xF378, size: 0x8, addend: 0x0, symName: __ZNSt3__1lsB8ue170006IcNS_11char_traitsIcEENS_9allocatorIcEEEERNS_13basic_ostreamIT_T0_EES9_RKNS_12basic_stringIS6_S7_T1_EE, symObjAddr: 0x778, symBinAddr: 0x100004C00, symSize: 0x4C }
  - { offsetInCU: 0xF3D0, offset: 0xF3D0, size: 0x8, addend: 0x0, symName: __ZNSt3__1lsB8ue170006INS_11char_traitsIcEEEERNS_13basic_ostreamIcT_EES6_PKc, symObjAddr: 0x7C4, symBinAddr: 0x100004C4C, symSize: 0x48 }
  - { offsetInCU: 0xF416, offset: 0xF416, size: 0x8, addend: 0x0, symName: __ZNSt3__14endlB8ue170006IcNS_11char_traitsIcEEEERNS_13basic_ostreamIT_T0_EES7_, symObjAddr: 0x838, symBinAddr: 0x100004CC0, symSize: 0x58 }
  - { offsetInCU: 0xF456, offset: 0xF456, size: 0x8, addend: 0x0, symName: __ZNSt3__17getlineB8ue170006IcNS_11char_traitsIcEENS_9allocatorIcEEEERNS_13basic_istreamIT_T0_EES9_RNS_12basic_stringIS6_S7_T1_EE, symObjAddr: 0x8BC, symBinAddr: 0x100004D44, symSize: 0x5C }
  - { offsetInCU: 0xF82A, offset: 0xF82A, size: 0x8, addend: 0x0, symName: __ZNSt3__1rsB8ue170006IcNS_11char_traitsIcEENS_9allocatorIcEEEERNS_13basic_istreamIT_T0_EES9_RNS_12basic_stringIS6_S7_T1_EE, symObjAddr: 0xA9C, symBinAddr: 0x100004F24, symSize: 0x310 }
  - { offsetInCU: 0xF90D, offset: 0xF90D, size: 0x8, addend: 0x0, symName: __ZNSt3__1rsB8ue170006IcNS_11char_traitsIcEEEERNS_13basic_istreamIT_T0_EES7_RS4_, symObjAddr: 0x1128, symBinAddr: 0x1000055B0, symSize: 0x18C }
  - { offsetInCU: 0xF98F, offset: 0xF98F, size: 0x8, addend: 0x0, symName: __ZNSt3__19make_pairB8ue170006IRcRiEENS_4pairINS_18__unwrap_ref_decayIT_E4typeENS4_IT0_E4typeEEEOS5_OS8_, symObjAddr: 0x1320, symBinAddr: 0x1000057A8, symSize: 0x34 }
  - { offsetInCU: 0xF9DE, offset: 0xF9DE, size: 0x8, addend: 0x0, symName: __ZNSt3__1lsB8ue170006INS_11char_traitsIcEEEERNS_13basic_ostreamIcT_EES6_c, symObjAddr: 0x173C, symBinAddr: 0x100005BC4, symSize: 0x34 }
  - { offsetInCU: 0xFB8F, offset: 0xFB8F, size: 0x8, addend: 0x0, symName: __ZNSt3__1neB8ue170006IPK8SamEntryEEbRKNS_11__wrap_iterIT_EES8_, symObjAddr: 0x2B64, symBinAddr: 0x100006FEC, symSize: 0x34 }
  - { offsetInCU: 0xFBD2, offset: 0xFBD2, size: 0x8, addend: 0x0, symName: __ZNSt3__17reverseB8ue170006INS_11__wrap_iterIPcEEEEvT_S4_, symObjAddr: 0x2BB0, symBinAddr: 0x100007038, symSize: 0x3C }
  - { offsetInCU: 0xFC11, offset: 0xFC11, size: 0x8, addend: 0x0, symName: __ZNSt3__1neB8ue170006IPNS_4pairIciEEEEbRKNS_11__wrap_iterIT_EES8_, symObjAddr: 0x2D00, symBinAddr: 0x100007188, symSize: 0x34 }
  - { offsetInCU: 0xFC54, offset: 0xFC54, size: 0x8, addend: 0x0, symName: __ZNSt3__1neB8ue170006ERKNS_14__map_iteratorINS_15__tree_iteratorINS_12__value_typeIi16MutationProposalEEPNS_11__tree_nodeIS4_PvEElEEEESC_, symObjAddr: 0x2DFC, symBinAddr: 0x100007284, symSize: 0x30 }
  - { offsetInCU: 0xFC91, offset: 0xFC91, size: 0x8, addend: 0x0, symName: __ZNSt3__1neB8ue170006IPcEEbRKNS_11__wrap_iterIT_EES6_, symObjAddr: 0x2EB4, symBinAddr: 0x10000733C, symSize: 0x34 }
  - { offsetInCU: 0xFCD4, offset: 0xFCD4, size: 0x8, addend: 0x0, symName: __ZNSt3__111max_elementB8ue170006INS_14__map_iteratorINS_15__tree_iteratorINS_12__value_typeIciEEPNS_11__tree_nodeIS4_PvEElEEEEPFbRKNS_4pairIciEESE_EEET_SH_SH_T0_, symObjAddr: 0x303C, symBinAddr: 0x1000074C4, symSize: 0x50 }
  - { offsetInCU: 0xFD2E, offset: 0xFD2E, size: 0x8, addend: 0x0, symName: __ZNSt3__1eqB8ue170006IcNS_11char_traitsIcEENS_9allocatorIcEEEEbRKNS_12basic_stringIT_T0_T1_EEPKS6_, symObjAddr: 0x3180, symBinAddr: 0x100007608, symSize: 0xC0 }
  - { offsetInCU: 0xFDA0, offset: 0xFDA0, size: 0x8, addend: 0x0, symName: __ZNSt3__112__to_addressB8ue170006I8SamEntryEEPT_S3_, symObjAddr: 0x3FCC, symBinAddr: 0x100008454, symSize: 0x14 }
  - { offsetInCU: 0xFDD5, offset: 0xFDD5, size: 0x8, addend: 0x0, symName: __ZNSt3__130__libcpp_is_constant_evaluatedB8ue170006Ev, symObjAddr: 0x40EC, symBinAddr: 0x100008574, symSize: 0xC }
  - { offsetInCU: 0xFDF2, offset: 0xFDF2, size: 0x8, addend: 0x0, symName: __ZNSt3__119__libcpp_deallocateB8ue170006EPvmm, symObjAddr: 0x40F8, symBinAddr: 0x100008580, symSize: 0x30 }
  - { offsetInCU: 0xFE3A, offset: 0xFE3A, size: 0x8, addend: 0x0, symName: __ZNSt3__127__do_deallocate_handle_sizeB8ue170006IJEEEvPvmDpT_, symObjAddr: 0x4128, symBinAddr: 0x1000085B0, symSize: 0x28 }
  - { offsetInCU: 0xFE78, offset: 0xFE78, size: 0x8, addend: 0x0, symName: __ZNSt3__124__libcpp_operator_deleteB8ue170006IJPvEEEvDpT_, symObjAddr: 0x4150, symBinAddr: 0x1000085D8, symSize: 0x24 }
  - { offsetInCU: 0xFEAD, offset: 0xFEAD, size: 0x8, addend: 0x0, symName: __ZNSt3__112__to_addressB8ue170006IKcEEPT_S3_, symObjAddr: 0x43E0, symBinAddr: 0x100008868, symSize: 0x14 }
  - { offsetInCU: 0xFF15, offset: 0xFF15, size: 0x8, addend: 0x0, symName: __ZNSt3__116__pad_and_outputB8ue170006IcNS_11char_traitsIcEEEENS_19ostreambuf_iteratorIT_T0_EES6_PKS4_S8_S8_RNS_8ios_baseES4_, symObjAddr: 0x4834, symBinAddr: 0x100008CBC, symSize: 0x248 }
  - { offsetInCU: 0xFFE4, offset: 0xFFE4, size: 0x8, addend: 0x0, symName: __ZNSt3__19use_facetB8ue170006INS_5ctypeIcEEEERKT_RKNS_6localeE, symObjAddr: 0x4EA8, symBinAddr: 0x100009330, symSize: 0x2C }
  - { offsetInCU: 0x103C2, offset: 0x103C2, size: 0x8, addend: 0x0, symName: __ZNSt3__118__constexpr_strlenB8ue170006EPKc, symObjAddr: 0x4F0C, symBinAddr: 0x100009394, symSize: 0x24 }
  - { offsetInCU: 0x103EE, offset: 0x103EE, size: 0x8, addend: 0x0, symName: __ZNSt3__117__libcpp_allocateB8ue170006Emm, symObjAddr: 0x532C, symBinAddr: 0x1000097B4, symSize: 0x28 }
  - { offsetInCU: 0x1042B, offset: 0x1042B, size: 0x8, addend: 0x0, symName: __ZNSt3__121__libcpp_operator_newB8ue170006IJmEEEPvDpT_, symObjAddr: 0x5368, symBinAddr: 0x1000097F0, symSize: 0x24 }
  - { offsetInCU: 0x10464, offset: 0x10464, size: 0x8, addend: 0x0, symName: __ZNSt3__17getlineB8ue170006IcNS_11char_traitsIcEENS_9allocatorIcEEEERNS_13basic_istreamIT_T0_EES9_RNS_12basic_stringIS6_S7_T1_EES6_, symObjAddr: 0x53C4, symBinAddr: 0x10000984C, symSize: 0x238 }
  - { offsetInCU: 0x10958, offset: 0x10958, size: 0x8, addend: 0x0, symName: __ZNSt3__13maxB8ue170006ImEERKT_S3_S3_, symObjAddr: 0x6478, symBinAddr: 0x10000A900, symSize: 0x2C }
  - { offsetInCU: 0x1099B, offset: 0x1099B, size: 0x8, addend: 0x0, symName: __ZNSt3__13minB8ue170006ImEERKT_S3_S3_, symObjAddr: 0x64A4, symBinAddr: 0x10000A92C, symSize: 0x2C }
  - { offsetInCU: 0x109DE, offset: 0x109DE, size: 0x8, addend: 0x0, symName: __ZNSt3__13minB8ue170006ImNS_6__lessIvvEEEERKT_S5_S5_T0_, symObjAddr: 0x651C, symBinAddr: 0x10000A9A4, symSize: 0x54 }
  - { offsetInCU: 0x10A7D, offset: 0x10A7D, size: 0x8, addend: 0x0, symName: __ZNSt3__120__throw_length_errorB8ue170006EPKc, symObjAddr: 0x65FC, symBinAddr: 0x10000AA84, symSize: 0x64 }
  - { offsetInCU: 0x10AA7, offset: 0x10AA7, size: 0x8, addend: 0x0, symName: __ZNSt3__13maxB8ue170006ImNS_6__lessIvvEEEERKT_S5_S5_T0_, symObjAddr: 0x66E0, symBinAddr: 0x10000AB68, symSize: 0x54 }
  - { offsetInCU: 0x10B01, offset: 0x10B01, size: 0x8, addend: 0x0, symName: __ZNSt3__119__allocate_at_leastB8ue170006INS_9allocatorI8SamEntryEEEENS_19__allocation_resultINS_16allocator_traitsIT_E7pointerEEERS6_m, symObjAddr: 0x6850, symBinAddr: 0x10000ACD8, symSize: 0x40 }
  - { offsetInCU: 0x10B44, offset: 0x10B44, size: 0x8, addend: 0x0, symName: __ZNSt3__142__uninitialized_allocator_move_if_noexceptB8ue170006INS_9allocatorI8SamEntryEENS_16reverse_iteratorIPS2_EES6_S6_EET2_RT_T0_T1_S7_, symObjAddr: 0x6A38, symBinAddr: 0x10000AEC0, symSize: 0x134 }
  - { offsetInCU: 0x10BE4, offset: 0x10BE4, size: 0x8, addend: 0x0, symName: __ZNSt3__14swapB8ue170006IP8SamEntryEEvRT_S4_, symObjAddr: 0x6BB8, symBinAddr: 0x10000B040, symSize: 0x3C }
  - { offsetInCU: 0x10C35, offset: 0x10C35, size: 0x8, addend: 0x0, symName: __ZNSt3__122__make_exception_guardB8ue170006INS_29_AllocatorDestroyRangeReverseINS_9allocatorI8SamEntryEENS_16reverse_iteratorIPS3_EEEEEENS_28__exception_guard_exceptionsIT_EESA_, symObjAddr: 0x6CBC, symBinAddr: 0x10000B144, symSize: 0x4C }
  - { offsetInCU: 0x10C6B, offset: 0x10C6B, size: 0x8, addend: 0x0, symName: __ZNSt3__1neB8ue170006IP8SamEntryS2_EEbRKNS_16reverse_iteratorIT_EERKNS3_IT0_EE, symObjAddr: 0x6D4C, symBinAddr: 0x10000B1D4, symSize: 0x48 }
  - { offsetInCU: 0x10CB7, offset: 0x10CB7, size: 0x8, addend: 0x0, symName: __ZNSt3__112__to_addressB8ue170006INS_16reverse_iteratorIP8SamEntryEEvEEu7__decayIDTclsr19__to_address_helperIT_EE6__callclsr3stdE7declvalIRKS5_EEEEES7_, symObjAddr: 0x6D94, symBinAddr: 0x10000B21C, symSize: 0x24 }
  - { offsetInCU: 0x10D16, offset: 0x10D16, size: 0x8, addend: 0x0, symName: __ZNSt3__119__allocator_destroyB8ue170006INS_9allocatorI8SamEntryEENS_16reverse_iteratorINS4_IPS2_EEEES7_EEvRT_T0_T1_, symObjAddr: 0x7050, symBinAddr: 0x10000B4D8, symSize: 0x70 }
  - { offsetInCU: 0x10D7B, offset: 0x10D7B, size: 0x8, addend: 0x0, symName: __ZNSt3__1neB8ue170006INS_16reverse_iteratorIP8SamEntryEES4_EEbRKNS1_IT_EERKNS1_IT0_EE, symObjAddr: 0x70FC, symBinAddr: 0x10000B584, symSize: 0x60 }
  - { offsetInCU: 0x10DC7, offset: 0x10DC7, size: 0x8, addend: 0x0, symName: __ZNSt3__112__to_addressB8ue170006INS_16reverse_iteratorINS1_IP8SamEntryEEEEvEEu7__decayIDTclsr19__to_address_helperIT_EE6__callclsr3stdE7declvalIRKS6_EEEEES8_, symObjAddr: 0x715C, symBinAddr: 0x10000B5E4, symSize: 0x24 }
  - { offsetInCU: 0x10E26, offset: 0x10E26, size: 0x8, addend: 0x0, symName: __ZNSt3__112__to_addressB8ue170006INS_4pairIciEEEEPT_S4_, symObjAddr: 0x7990, symBinAddr: 0x10000BE18, symSize: 0x14 }
  - { offsetInCU: 0x10E5B, offset: 0x10E5B, size: 0x8, addend: 0x0, symName: __ZNSt3__119__allocate_at_leastB8ue170006INS_9allocatorINS_4pairIciEEEEEENS_19__allocation_resultINS_16allocator_traitsIT_E7pointerEEERS7_m, symObjAddr: 0x830C, symBinAddr: 0x10000C794, symSize: 0x40 }
  - { offsetInCU: 0x10E9E, offset: 0x10E9E, size: 0x8, addend: 0x0, symName: __ZNSt3__142__uninitialized_allocator_move_if_noexceptB8ue170006INS_9allocatorINS_4pairIciEEEENS_16reverse_iteratorIPS3_EES7_S7_EET2_RT_T0_T1_S8_, symObjAddr: 0x84EC, symBinAddr: 0x10000C974, symSize: 0x134 }
  - { offsetInCU: 0x10F3E, offset: 0x10F3E, size: 0x8, addend: 0x0, symName: __ZNSt3__14swapB8ue170006IPNS_4pairIciEEEEvRT_S5_, symObjAddr: 0x866C, symBinAddr: 0x10000CAF4, symSize: 0x3C }
  - { offsetInCU: 0x10F8F, offset: 0x10F8F, size: 0x8, addend: 0x0, symName: __ZNSt3__122__make_exception_guardB8ue170006INS_29_AllocatorDestroyRangeReverseINS_9allocatorINS_4pairIciEEEENS_16reverse_iteratorIPS4_EEEEEENS_28__exception_guard_exceptionsIT_EESB_, symObjAddr: 0x8754, symBinAddr: 0x10000CBDC, symSize: 0x4C }
  - { offsetInCU: 0x10FC5, offset: 0x10FC5, size: 0x8, addend: 0x0, symName: __ZNSt3__1neB8ue170006IPNS_4pairIciEES3_EEbRKNS_16reverse_iteratorIT_EERKNS4_IT0_EE, symObjAddr: 0x87E4, symBinAddr: 0x10000CC6C, symSize: 0x48 }
  - { offsetInCU: 0x11011, offset: 0x11011, size: 0x8, addend: 0x0, symName: __ZNSt3__112__to_addressB8ue170006INS_16reverse_iteratorIPNS_4pairIciEEEEvEEu7__decayIDTclsr19__to_address_helperIT_EE6__callclsr3stdE7declvalIRKS6_EEEEES8_, symObjAddr: 0x882C, symBinAddr: 0x10000CCB4, symSize: 0x24 }
  - { offsetInCU: 0x11070, offset: 0x11070, size: 0x8, addend: 0x0, symName: __ZNSt3__119__allocator_destroyB8ue170006INS_9allocatorINS_4pairIciEEEENS_16reverse_iteratorINS5_IPS3_EEEES8_EEvRT_T0_T1_, symObjAddr: 0x8AE8, symBinAddr: 0x10000CF70, symSize: 0x70 }
  - { offsetInCU: 0x110D5, offset: 0x110D5, size: 0x8, addend: 0x0, symName: __ZNSt3__1neB8ue170006INS_16reverse_iteratorIPNS_4pairIciEEEES5_EEbRKNS1_IT_EERKNS1_IT0_EE, symObjAddr: 0x8B94, symBinAddr: 0x10000D01C, symSize: 0x60 }
  - { offsetInCU: 0x11121, offset: 0x11121, size: 0x8, addend: 0x0, symName: __ZNSt3__112__to_addressB8ue170006INS_16reverse_iteratorINS1_IPNS_4pairIciEEEEEEvEEu7__decayIDTclsr19__to_address_helperIT_EE6__callclsr3stdE7declvalIRKS7_EEEEES9_, symObjAddr: 0x8BF4, symBinAddr: 0x10000D07C, symSize: 0x24 }
  - { offsetInCU: 0x111D1, offset: 0x111D1, size: 0x8, addend: 0x0, symName: __ZNSt3__112__to_addressB8ue170006IcEEPT_S2_, symObjAddr: 0xA06C, symBinAddr: 0x10000E4F4, symSize: 0x14 }
  - { offsetInCU: 0x11206, offset: 0x11206, size: 0x8, addend: 0x0, symName: __ZNSt3__127__tree_balance_after_insertB8ue170006IPNS_16__tree_node_baseIPvEEEEvT_S5_, symObjAddr: 0xA204, symBinAddr: 0x10000E68C, symSize: 0x340 }
  - { offsetInCU: 0x1127A, offset: 0x1127A, size: 0x8, addend: 0x0, symName: __ZNSt3__120__tree_is_left_childB8ue170006IPNS_16__tree_node_baseIPvEEEEbT_, symObjAddr: 0xA584, symBinAddr: 0x10000EA0C, symSize: 0x2C }
  - { offsetInCU: 0x112AF, offset: 0x112AF, size: 0x8, addend: 0x0, symName: __ZNSt3__118__tree_left_rotateB8ue170006IPNS_16__tree_node_baseIPvEEEEvT_, symObjAddr: 0xA5B0, symBinAddr: 0x10000EA38, symSize: 0xEC }
  - { offsetInCU: 0x112F1, offset: 0x112F1, size: 0x8, addend: 0x0, symName: __ZNSt3__119__tree_right_rotateB8ue170006IPNS_16__tree_node_baseIPvEEEEvT_, symObjAddr: 0xA69C, symBinAddr: 0x10000EB24, symSize: 0xCC }
  - { offsetInCU: 0x11333, offset: 0x11333, size: 0x8, addend: 0x0, symName: __ZNSt3__119__allocate_at_leastB8ue170006INS_9allocatorIcEEEENS_19__allocation_resultINS_16allocator_traitsIT_E7pointerEEERS5_m, symObjAddr: 0xB230, symBinAddr: 0x10000F6B8, symSize: 0x40 }
  - { offsetInCU: 0x11376, offset: 0x11376, size: 0x8, addend: 0x0, symName: __ZNSt3__142__uninitialized_allocator_move_if_noexceptB8ue170006INS_9allocatorIcEENS_16reverse_iteratorIPcEES5_cvEET1_RT_T0_S9_S6_, symObjAddr: 0xB38C, symBinAddr: 0x10000F814, symSize: 0xE8 }
  - { offsetInCU: 0x113F3, offset: 0x113F3, size: 0x8, addend: 0x0, symName: __ZNSt3__14swapB8ue170006IPcEEvRT_S3_, symObjAddr: 0xB4C0, symBinAddr: 0x10000F948, symSize: 0x3C }
  - { offsetInCU: 0x11444, offset: 0x11444, size: 0x8, addend: 0x0, symName: __ZNSt3__1neB8ue170006IPcS1_EEbRKNS_16reverse_iteratorIT_EERKNS2_IT0_EE, symObjAddr: 0xB5A8, symBinAddr: 0x10000FA30, symSize: 0x48 }
  - { offsetInCU: 0x114B5, offset: 0x114B5, size: 0x8, addend: 0x0, symName: __ZNSt3__114__construct_atB8ue170006IcJcEPcEEPT_S3_DpOT0_, symObjAddr: 0xB5F0, symBinAddr: 0x10000FA78, symSize: 0x2C }
  - { offsetInCU: 0x11525, offset: 0x11525, size: 0x8, addend: 0x0, symName: __ZNSt3__112__to_addressB8ue170006INS_16reverse_iteratorIPcEEvEEu7__decayIDTclsr19__to_address_helperIT_EE6__callclsr3stdE7declvalIRKS4_EEEEES6_, symObjAddr: 0xB61C, symBinAddr: 0x10000FAA4, symSize: 0x24 }
  - { offsetInCU: 0x1155B, offset: 0x1155B, size: 0x8, addend: 0x0, symName: __ZNSt3__14moveB8ue170006INS_16reverse_iteratorIPcEES3_EET0_T_S5_S4_, symObjAddr: 0xB688, symBinAddr: 0x10000FB10, symSize: 0x78 }
  - { offsetInCU: 0x115DE, offset: 0x115DE, size: 0x8, addend: 0x0, symName: __ZNSt3__16__moveB8ue170006INS_17_ClassicAlgPolicyENS_16reverse_iteratorIPcEES4_S4_EENS_4pairIT0_T2_EES6_T1_S7_, symObjAddr: 0xB770, symBinAddr: 0x10000FBF8, symSize: 0x64 }
  - { offsetInCU: 0x1164A, offset: 0x1164A, size: 0x8, addend: 0x0, symName: __ZNSt3__123__dispatch_copy_or_moveB8ue170006INS_17_ClassicAlgPolicyENS_11__move_loopIS1_EENS_14__move_trivialENS_16reverse_iteratorIPcEES7_S7_EENS_4pairIT2_T4_EES9_T3_SA_, symObjAddr: 0xB7D4, symBinAddr: 0x10000FC5C, symSize: 0x64 }
  - { offsetInCU: 0x116C8, offset: 0x116C8, size: 0x8, addend: 0x0, symName: __ZNSt3__121__unwrap_and_dispatchB8ue170006INS_10__overloadINS_11__move_loopINS_17_ClassicAlgPolicyEEENS_14__move_trivialEEENS_16reverse_iteratorIPcEES9_S9_Li0EEENS_4pairIT0_T2_EESB_T1_SC_, symObjAddr: 0xB838, symBinAddr: 0x10000FCC0, symSize: 0x12C }
  - { offsetInCU: 0x11758, offset: 0x11758, size: 0x8, addend: 0x0, symName: __ZNSt3__114__unwrap_rangeB8ue170006INS_16reverse_iteratorIPcEES3_EENS_4pairIT0_S5_EET_S7_, symObjAddr: 0xB964, symBinAddr: 0x10000FDEC, symSize: 0x84 }
  - { offsetInCU: 0x118AC, offset: 0x118AC, size: 0x8, addend: 0x0, symName: __ZNSt3__113__unwrap_iterB8ue170006INS_16reverse_iteratorIPcEENS_18__unwrap_iter_implIS3_Lb0EEELi0EEEDTclsrT0_8__unwrapclsr3stdE7declvalIT_EEEES7_, symObjAddr: 0xBA88, symBinAddr: 0x10000FF10, symSize: 0x44 }
  - { offsetInCU: 0x118F0, offset: 0x118F0, size: 0x8, addend: 0x0, symName: __ZNSt3__19make_pairB8ue170006INS_16reverse_iteratorIPcEES3_EENS_4pairINS_18__unwrap_ref_decayIT_E4typeENS5_IT0_E4typeEEEOS6_OS9_, symObjAddr: 0xBACC, symBinAddr: 0x10000FF54, symSize: 0x38 }
  - { offsetInCU: 0x1193F, offset: 0x1193F, size: 0x8, addend: 0x0, symName: __ZNSt3__114__rewrap_rangeB8ue170006INS_16reverse_iteratorIPcEES3_EET_S4_T0_, symObjAddr: 0xBB04, symBinAddr: 0x10000FF8C, symSize: 0x5C }
  - { offsetInCU: 0x1198B, offset: 0x1198B, size: 0x8, addend: 0x0, symName: __ZNSt3__113__rewrap_iterB8ue170006INS_16reverse_iteratorIPcEES3_NS_18__unwrap_iter_implIS3_Lb0EEEEET_S6_T0_, symObjAddr: 0xBB60, symBinAddr: 0x10000FFE8, symSize: 0x88 }
  - { offsetInCU: 0x11ABA, offset: 0x11ABA, size: 0x8, addend: 0x0, symName: __ZNSt3__1eqB8ue170006IPK8SamEntryEEbRKNS_11__wrap_iterIT_EES8_, symObjAddr: 0xC4E0, symBinAddr: 0x100010968, symSize: 0x48 }
  - { offsetInCU: 0x11AFD, offset: 0x11AFD, size: 0x8, addend: 0x0, symName: __ZNSt3__19__reverseB8ue170006INS_17_ClassicAlgPolicyENS_11__wrap_iterIPcEES4_EEvT0_T1_, symObjAddr: 0xC5C4, symBinAddr: 0x100010A4C, symSize: 0x3C }
  - { offsetInCU: 0x11B4E, offset: 0x11B4E, size: 0x8, addend: 0x0, symName: __ZNSt3__114__reverse_implB8ue170006INS_17_ClassicAlgPolicyENS_11__wrap_iterIPcEEEEvT0_S5_NS_26random_access_iterator_tagE, symObjAddr: 0xC600, symBinAddr: 0x100010A88, symSize: 0x7C }
  - { offsetInCU: 0x11BA0, offset: 0x11BA0, size: 0x8, addend: 0x0, symName: __ZNSt3__1ltB8ue170006IPcEEbRKNS_11__wrap_iterIT_EES6_, symObjAddr: 0xC67C, symBinAddr: 0x100010B04, symSize: 0x48 }
  - { offsetInCU: 0x11BE3, offset: 0x11BE3, size: 0x8, addend: 0x0, symName: __ZNSt3__19iter_swapB8ue170006INS_11__wrap_iterIPcEES3_EEvT_T0_, symObjAddr: 0xC740, symBinAddr: 0x100010BC8, symSize: 0x50 }
  - { offsetInCU: 0x11C2B, offset: 0x11C2B, size: 0x8, addend: 0x0, symName: __ZNSt3__14swapB8ue170006IcEEvRT_S2_, symObjAddr: 0xC790, symBinAddr: 0x100010C18, symSize: 0x3C }
  - { offsetInCU: 0x11C7C, offset: 0x11C7C, size: 0x8, addend: 0x0, symName: __ZNSt3__1eqB8ue170006IPNS_4pairIciEEEEbRKNS_11__wrap_iterIT_EES8_, symObjAddr: 0xC850, symBinAddr: 0x100010CD8, symSize: 0x48 }
  - { offsetInCU: 0x11CBF, offset: 0x11CBF, size: 0x8, addend: 0x0, symName: __ZNSt3__1neB8ue170006ERKNS_15__tree_iteratorINS_12__value_typeIi16MutationProposalEEPNS_11__tree_nodeIS3_PvEElEESA_, symObjAddr: 0xC9C0, symBinAddr: 0x100010E48, symSize: 0x34 }
  - { offsetInCU: 0x11CFC, offset: 0x11CFC, size: 0x8, addend: 0x0, symName: __ZNSt3__1eqB8ue170006ERKNS_15__tree_iteratorINS_12__value_typeIi16MutationProposalEEPNS_11__tree_nodeIS3_PvEElEESA_, symObjAddr: 0xC9F4, symBinAddr: 0x100010E7C, symSize: 0x30 }
  - { offsetInCU: 0x11D39, offset: 0x11D39, size: 0x8, addend: 0x0, symName: __ZNSt3__116__tree_next_iterB8ue170006IPNS_15__tree_end_nodeIPNS_16__tree_node_baseIPvEEEES5_EET_T0_, symObjAddr: 0xCA5C, symBinAddr: 0x100010EE4, symSize: 0x80 }
  - { offsetInCU: 0x11D77, offset: 0x11D77, size: 0x8, addend: 0x0, symName: __ZNSt3__110__tree_minB8ue170006IPNS_16__tree_node_baseIPvEEEET_S5_, symObjAddr: 0xCADC, symBinAddr: 0x100010F64, symSize: 0x40 }
  - { offsetInCU: 0x11DDF, offset: 0x11DDF, size: 0x8, addend: 0x0, symName: __ZNSt3__1eqB8ue170006IPcEEbRKNS_11__wrap_iterIT_EES6_, symObjAddr: 0xCBA4, symBinAddr: 0x10001102C, symSize: 0x48 }
  - { offsetInCU: 0x11E40, offset: 0x11E40, size: 0x8, addend: 0x0, symName: __ZNSt3__113__max_elementB8ue170006IRPFbRKNS_4pairIciEES4_ENS_14__map_iteratorINS_15__tree_iteratorINS_12__value_typeIciEEPNS_11__tree_nodeISB_PvEElEEEEEET0_SI_SI_T_, symObjAddr: 0xDEE4, symBinAddr: 0x10001236C, symSize: 0xD8 }
  - { offsetInCU: 0x11EB6, offset: 0x11EB6, size: 0x8, addend: 0x0, symName: __ZNSt3__1neB8ue170006ERKNS_14__map_iteratorINS_15__tree_iteratorINS_12__value_typeIciEEPNS_11__tree_nodeIS3_PvEElEEEESB_, symObjAddr: 0xDFBC, symBinAddr: 0x100012444, symSize: 0x30 }
  - { offsetInCU: 0x11EF3, offset: 0x11EF3, size: 0x8, addend: 0x0, symName: __ZNSt3__1neB8ue170006ERKNS_15__tree_iteratorINS_12__value_typeIciEEPNS_11__tree_nodeIS2_PvEElEES9_, symObjAddr: 0xE074, symBinAddr: 0x1000124FC, symSize: 0x34 }
  - { offsetInCU: 0x11F30, offset: 0x11F30, size: 0x8, addend: 0x0, symName: __ZNSt3__1eqB8ue170006ERKNS_15__tree_iteratorINS_12__value_typeIciEEPNS_11__tree_nodeIS2_PvEElEES9_, symObjAddr: 0xE0A8, symBinAddr: 0x100012530, symSize: 0x30 }
  - { offsetInCU: 0x1223D, offset: 0x1223D, size: 0x8, addend: 0x0, symName: __ZSt28__throw_bad_array_new_lengthB8ue170006v, symObjAddr: 0x52F8, symBinAddr: 0x100009780, symSize: 0x34 }
  - { offsetInCU: 0x12859, offset: 0x12859, size: 0x8, addend: 0x0, symName: __ZNSt3__16vectorI8SamEntryNS_9allocatorIS1_EEE26__swap_out_circular_bufferERNS_14__split_bufferIS1_RS3_EE, symObjAddr: 0x62AC, symBinAddr: 0x10000A734, symSize: 0x110 }
  - { offsetInCU: 0x12A8C, offset: 0x12A8C, size: 0x8, addend: 0x0, symName: __ZNSt3__16vectorINS_4pairIciEENS_9allocatorIS2_EEE26__swap_out_circular_bufferERNS_14__split_bufferIS2_RS4_EE, symObjAddr: 0x7F98, symBinAddr: 0x10000C420, symSize: 0x110 }
  - { offsetInCU: 0x13056, offset: 0x13056, size: 0x8, addend: 0x0, symName: __ZNSt3__16vectorIcNS_9allocatorIcEEE26__swap_out_circular_bufferERNS_14__split_bufferIcRS2_EE, symObjAddr: 0xAF08, symBinAddr: 0x10000F390, symSize: 0x110 }
  - { offsetInCU: 0x156FB, offset: 0x156FB, size: 0x8, addend: 0x0, symName: __Z12comparePairsRKNSt3__14pairIciEES3_, symObjAddr: 0x0, symBinAddr: 0x100004488, symSize: 0x30 }
  - { offsetInCU: 0x15735, offset: 0x15735, size: 0x8, addend: 0x0, symName: __Z12parseSamFileRKNSt3__112basic_stringIcNS_11char_traitsIcEENS_9allocatorIcEEEE, symObjAddr: 0x30, symBinAddr: 0x1000044B8, symSize: 0x578 }
  - { offsetInCU: 0x1585A, offset: 0x1585A, size: 0x8, addend: 0x0, symName: __ZNSt3__16vectorI8SamEntryNS_9allocatorIS1_EEEC1B8ue170006Ev, symObjAddr: 0x5A8, symBinAddr: 0x100004A30, symSize: 0x2C }
  - { offsetInCU: 0x159A7, offset: 0x159A7, size: 0x8, addend: 0x0, symName: __ZNSt3__114basic_ifstreamIcNS_11char_traitsIcEEEC1ERKNS_12basic_stringIcS2_NS_9allocatorIcEEEEj, symObjAddr: 0x5D4, symBinAddr: 0x100004A5C, symSize: 0x17C }
  - { offsetInCU: 0x159F1, offset: 0x159F1, size: 0x8, addend: 0x0, symName: __ZNKSt3__19basic_iosIcNS_11char_traitsIcEEEntB8ue170006Ev, symObjAddr: 0x750, symBinAddr: 0x100004BD8, symSize: 0x28 }
  - { offsetInCU: 0x15A17, offset: 0x15A17, size: 0x8, addend: 0x0, symName: __ZNSt3__113basic_ostreamIcNS_11char_traitsIcEEElsB8ue170006EPFRS3_S4_E, symObjAddr: 0x80C, symBinAddr: 0x100004C94, symSize: 0x2C }
  - { offsetInCU: 0x15A4B, offset: 0x15A4B, size: 0x8, addend: 0x0, symName: __ZNSt3__112basic_stringIcNS_11char_traitsIcEENS_9allocatorIcEEEC1B8ue170006Ev, symObjAddr: 0x890, symBinAddr: 0x100004D18, symSize: 0x2C }
  - { offsetInCU: 0x15A75, offset: 0x15A75, size: 0x8, addend: 0x0, symName: __ZNKSt3__19basic_iosIcNS_11char_traitsIcEEEcvPvB8ue170006Ev, symObjAddr: 0x918, symBinAddr: 0x100004DA0, symSize: 0x4C }
  - { offsetInCU: 0x15A9B, offset: 0x15A9B, size: 0x8, addend: 0x0, symName: __ZNSt3__112basic_stringIcNS_11char_traitsIcEENS_9allocatorIcEEEixB8ue170006Em, symObjAddr: 0x964, symBinAddr: 0x100004DEC, symSize: 0x30 }
  - { offsetInCU: 0x15B22, offset: 0x15B22, size: 0x8, addend: 0x0, symName: __ZNSt3__119basic_istringstreamIcNS_11char_traitsIcEENS_9allocatorIcEEEC1B8ue170006ERKNS_12basic_stringIcS2_S4_EEj, symObjAddr: 0x994, symBinAddr: 0x100004E1C, symSize: 0x108 }
  - { offsetInCU: 0x15B6F, offset: 0x15B6F, size: 0x8, addend: 0x0, symName: __ZN8SamEntryC1Ev, symObjAddr: 0xDAC, symBinAddr: 0x100005234, symSize: 0x2C }
  - { offsetInCU: 0x15B9B, offset: 0x15B9B, size: 0x8, addend: 0x0, symName: __ZNSt3__16vectorI8SamEntryNS_9allocatorIS1_EEE9push_backB8ue170006ERKS1_, symObjAddr: 0xDD8, symBinAddr: 0x100005260, symSize: 0x6C }
  - { offsetInCU: 0x15BD2, offset: 0x15BD2, size: 0x8, addend: 0x0, symName: __ZN8SamEntryD1Ev, symObjAddr: 0xE44, symBinAddr: 0x1000052CC, symSize: 0x2C }
  - { offsetInCU: 0x15C03, offset: 0x15C03, size: 0x8, addend: 0x0, symName: __ZNSt3__119basic_istringstreamIcNS_11char_traitsIcEENS_9allocatorIcEEED1Ev, symObjAddr: 0xE7C, symBinAddr: 0x100005304, symSize: 0x70 }
  - { offsetInCU: 0x15C35, offset: 0x15C35, size: 0x8, addend: 0x0, symName: __ZNSt3__114basic_ifstreamIcNS_11char_traitsIcEEED1Ev, symObjAddr: 0xEEC, symBinAddr: 0x100005374, symSize: 0x70 }
  - { offsetInCU: 0x15C62, offset: 0x15C62, size: 0x8, addend: 0x0, symName: __ZNSt3__16vectorI8SamEntryNS_9allocatorIS1_EEED1B8ue170006Ev, symObjAddr: 0xF5C, symBinAddr: 0x1000053E4, symSize: 0x2C }
  - { offsetInCU: 0x15C8B, offset: 0x15C8B, size: 0x8, addend: 0x0, symName: __Z10parseCigarRKNSt3__112basic_stringIcNS_11char_traitsIcEENS_9allocatorIcEEEE, symObjAddr: 0xF88, symBinAddr: 0x100005410, symSize: 0x174 }
  - { offsetInCU: 0x15CF4, offset: 0x15CF4, size: 0x8, addend: 0x0, symName: __ZNSt3__16vectorINS_4pairIciEENS_9allocatorIS2_EEEC1B8ue170006Ev, symObjAddr: 0x10FC, symBinAddr: 0x100005584, symSize: 0x2C }
  - { offsetInCU: 0x15D1E, offset: 0x15D1E, size: 0x8, addend: 0x0, symName: __ZNSt3__16vectorINS_4pairIciEENS_9allocatorIS2_EEE9push_backB8ue170006EOS2_, symObjAddr: 0x12B4, symBinAddr: 0x10000573C, symSize: 0x6C }
  - { offsetInCU: 0x15D55, offset: 0x15D55, size: 0x8, addend: 0x0, symName: __ZNSt3__16vectorINS_4pairIciEENS_9allocatorIS2_EEED1B8ue170006Ev, symObjAddr: 0x1354, symBinAddr: 0x1000057DC, symSize: 0x2C }
  - { offsetInCU: 0x15D7E, offset: 0x15D7E, size: 0x8, addend: 0x0, symName: __Z19addMutationProposalRNSt3__13mapIi16MutationProposalNS_4lessIiEENS_9allocatorINS_4pairIKiS1_EEEEEEiiRKNS_12basic_stringIcNS_11char_traitsIcEENS4_IcEEEESH_ciRNS_14basic_ofstreamIcSD_EE, symObjAddr: 0x1380, symBinAddr: 0x100005808, symSize: 0x3BC }
  - { offsetInCU: 0x15E41, offset: 0x15E41, size: 0x8, addend: 0x0, symName: __ZNKSt3__112basic_stringIcNS_11char_traitsIcEENS_9allocatorIcEEE4sizeB8ue170006Ev, symObjAddr: 0x1770, symBinAddr: 0x100005BF8, symSize: 0x54 }
  - { offsetInCU: 0x15E67, offset: 0x15E67, size: 0x8, addend: 0x0, symName: __ZNKSt3__112basic_stringIcNS_11char_traitsIcEENS_9allocatorIcEEEixB8ue170006Em, symObjAddr: 0x17C4, symBinAddr: 0x100005C4C, symSize: 0x30 }
  - { offsetInCU: 0x15E9C, offset: 0x15E9C, size: 0x8, addend: 0x0, symName: __ZNSt3__13mapIi16MutationProposalNS_4lessIiEENS_9allocatorINS_4pairIKiS1_EEEEEixERS6_, symObjAddr: 0x17F4, symBinAddr: 0x100005C7C, symSize: 0xC8 }
  - { offsetInCU: 0x15F15, offset: 0x15F15, size: 0x8, addend: 0x0, symName: __ZNSt3__16vectorIcNS_9allocatorIcEEE9push_backB8ue170006ERKc, symObjAddr: 0x18BC, symBinAddr: 0x100005D44, symSize: 0x6C }
  - { offsetInCU: 0x15F4B, offset: 0x15F4B, size: 0x8, addend: 0x0, symName: __Z15detectMutationsRKNSt3__16vectorI8SamEntryNS_9allocatorIS1_EEEERKNS_12basic_stringIcNS_11char_traitsIcEENS2_IcEEEESD_SD_, symObjAddr: 0x1928, symBinAddr: 0x100005DB0, symSize: 0x1034 }
  - { offsetInCU: 0x162DE, offset: 0x162DE, size: 0x8, addend: 0x0, symName: __ZNSt3__114basic_ofstreamIcNS_11char_traitsIcEEEC1ERKNS_12basic_stringIcS2_NS_9allocatorIcEEEEj, symObjAddr: 0x295C, symBinAddr: 0x100006DE4, symSize: 0x17C }
  - { offsetInCU: 0x16328, offset: 0x16328, size: 0x8, addend: 0x0, symName: __ZNSt3__13mapIi16MutationProposalNS_4lessIiEENS_9allocatorINS_4pairIKiS1_EEEEEC1B8ue170006Ev, symObjAddr: 0x2AD8, symBinAddr: 0x100006F60, symSize: 0x2C }
  - { offsetInCU: 0x16352, offset: 0x16352, size: 0x8, addend: 0x0, symName: __ZNKSt3__16vectorI8SamEntryNS_9allocatorIS1_EEE5beginB8ue170006Ev, symObjAddr: 0x2B04, symBinAddr: 0x100006F8C, symSize: 0x30 }
  - { offsetInCU: 0x1637A, offset: 0x1637A, size: 0x8, addend: 0x0, symName: __ZNKSt3__16vectorI8SamEntryNS_9allocatorIS1_EEE3endB8ue170006Ev, symObjAddr: 0x2B34, symBinAddr: 0x100006FBC, symSize: 0x30 }
  - { offsetInCU: 0x163A2, offset: 0x163A2, size: 0x8, addend: 0x0, symName: __ZNKSt3__111__wrap_iterIPK8SamEntryEdeB8ue170006Ev, symObjAddr: 0x2B98, symBinAddr: 0x100007020, symSize: 0x18 }
  - { offsetInCU: 0x163C8, offset: 0x163C8, size: 0x8, addend: 0x0, symName: __ZNSt3__112basic_stringIcNS_11char_traitsIcEENS_9allocatorIcEEE5beginB8ue170006Ev, symObjAddr: 0x2BEC, symBinAddr: 0x100007074, symSize: 0x60 }
  - { offsetInCU: 0x163EE, offset: 0x163EE, size: 0x8, addend: 0x0, symName: __ZNSt3__112basic_stringIcNS_11char_traitsIcEENS_9allocatorIcEEE3endB8ue170006Ev, symObjAddr: 0x2C4C, symBinAddr: 0x1000070D4, symSize: 0x54 }
  - { offsetInCU: 0x16414, offset: 0x16414, size: 0x8, addend: 0x0, symName: __ZNSt3__16vectorINS_4pairIciEENS_9allocatorIS2_EEE5beginB8ue170006Ev, symObjAddr: 0x2CA0, symBinAddr: 0x100007128, symSize: 0x30 }
  - { offsetInCU: 0x1643C, offset: 0x1643C, size: 0x8, addend: 0x0, symName: __ZNSt3__16vectorINS_4pairIciEENS_9allocatorIS2_EEE3endB8ue170006Ev, symObjAddr: 0x2CD0, symBinAddr: 0x100007158, symSize: 0x30 }
  - { offsetInCU: 0x16464, offset: 0x16464, size: 0x8, addend: 0x0, symName: __ZNKSt3__111__wrap_iterIPNS_4pairIciEEEdeB8ue170006Ev, symObjAddr: 0x2D34, symBinAddr: 0x1000071BC, symSize: 0x18 }
  - { offsetInCU: 0x1648A, offset: 0x1648A, size: 0x8, addend: 0x0, symName: __ZNSt3__111__wrap_iterIPNS_4pairIciEEEppB8ue170006Ev, symObjAddr: 0x2D4C, symBinAddr: 0x1000071D4, symSize: 0x20 }
  - { offsetInCU: 0x164B0, offset: 0x164B0, size: 0x8, addend: 0x0, symName: __ZNSt3__111__wrap_iterIPK8SamEntryEppB8ue170006Ev, symObjAddr: 0x2D6C, symBinAddr: 0x1000071F4, symSize: 0x20 }
  - { offsetInCU: 0x164D6, offset: 0x164D6, size: 0x8, addend: 0x0, symName: __ZNSt3__13mapIi16MutationProposalNS_4lessIiEENS_9allocatorINS_4pairIKiS1_EEEEE5beginB8ue170006Ev, symObjAddr: 0x2D8C, symBinAddr: 0x100007214, symSize: 0x38 }
  - { offsetInCU: 0x164FC, offset: 0x164FC, size: 0x8, addend: 0x0, symName: __ZNSt3__13mapIi16MutationProposalNS_4lessIiEENS_9allocatorINS_4pairIKiS1_EEEEE3endB8ue170006Ev, symObjAddr: 0x2DC4, symBinAddr: 0x10000724C, symSize: 0x38 }
  - { offsetInCU: 0x16522, offset: 0x16522, size: 0x8, addend: 0x0, symName: __ZNKSt3__114__map_iteratorINS_15__tree_iteratorINS_12__value_typeIi16MutationProposalEEPNS_11__tree_nodeIS4_PvEElEEEdeB8ue170006Ev, symObjAddr: 0x2E2C, symBinAddr: 0x1000072B4, symSize: 0x28 }
  - { offsetInCU: 0x16548, offset: 0x16548, size: 0x8, addend: 0x0, symName: __ZNSt3__16vectorIcNS_9allocatorIcEEE5beginB8ue170006Ev, symObjAddr: 0x2E54, symBinAddr: 0x1000072DC, symSize: 0x30 }
  - { offsetInCU: 0x16570, offset: 0x16570, size: 0x8, addend: 0x0, symName: __ZNSt3__16vectorIcNS_9allocatorIcEEE3endB8ue170006Ev, symObjAddr: 0x2E84, symBinAddr: 0x10000730C, symSize: 0x30 }
  - { offsetInCU: 0x16598, offset: 0x16598, size: 0x8, addend: 0x0, symName: __ZNKSt3__111__wrap_iterIPcEdeB8ue170006Ev, symObjAddr: 0x2EE8, symBinAddr: 0x100007370, symSize: 0x18 }
  - { offsetInCU: 0x165BE, offset: 0x165BE, size: 0x8, addend: 0x0, symName: __ZNSt3__111__wrap_iterIPcEppB8ue170006Ev, symObjAddr: 0x2F00, symBinAddr: 0x100007388, symSize: 0x20 }
  - { offsetInCU: 0x165E4, offset: 0x165E4, size: 0x8, addend: 0x0, symName: __ZNKSt3__16vectorIcNS_9allocatorIcEEE5emptyB8ue170006Ev, symObjAddr: 0x2F20, symBinAddr: 0x1000073A8, symSize: 0x28 }
  - { offsetInCU: 0x1660A, offset: 0x1660A, size: 0x8, addend: 0x0, symName: __ZNSt3__13mapIciNS_4lessIcEENS_9allocatorINS_4pairIKciEEEEEC1B8ue170006Ev, symObjAddr: 0x2F48, symBinAddr: 0x1000073D0, symSize: 0x2C }
  - { offsetInCU: 0x16634, offset: 0x16634, size: 0x8, addend: 0x0, symName: __ZNSt3__13mapIciNS_4lessIcEENS_9allocatorINS_4pairIKciEEEEEixERS5_, symObjAddr: 0x2F74, symBinAddr: 0x1000073FC, symSize: 0xC8 }
  - { offsetInCU: 0x166AD, offset: 0x166AD, size: 0x8, addend: 0x0, symName: __ZNSt3__13mapIciNS_4lessIcEENS_9allocatorINS_4pairIKciEEEEE5beginB8ue170006Ev, symObjAddr: 0x308C, symBinAddr: 0x100007514, symSize: 0x38 }
  - { offsetInCU: 0x166D3, offset: 0x166D3, size: 0x8, addend: 0x0, symName: __ZNSt3__13mapIciNS_4lessIcEENS_9allocatorINS_4pairIKciEEEEE3endB8ue170006Ev, symObjAddr: 0x30C4, symBinAddr: 0x10000754C, symSize: 0x38 }
  - { offsetInCU: 0x166F9, offset: 0x166F9, size: 0x8, addend: 0x0, symName: __ZNKSt3__114__map_iteratorINS_15__tree_iteratorINS_12__value_typeIciEEPNS_11__tree_nodeIS3_PvEElEEEptB8ue170006Ev, symObjAddr: 0x30FC, symBinAddr: 0x100007584, symSize: 0x2C }
  - { offsetInCU: 0x1671F, offset: 0x1671F, size: 0x8, addend: 0x0, symName: __ZNSt3__13mapIciNS_4lessIcEENS_9allocatorINS_4pairIKciEEEEED1B8ue170006Ev, symObjAddr: 0x3128, symBinAddr: 0x1000075B0, symSize: 0x2C }
  - { offsetInCU: 0x16749, offset: 0x16749, size: 0x8, addend: 0x0, symName: __ZNSt3__112basic_stringIcNS_11char_traitsIcEENS_9allocatorIcEEEaSB8ue170006EPKc, symObjAddr: 0x3154, symBinAddr: 0x1000075DC, symSize: 0x2C }
  - { offsetInCU: 0x1677E, offset: 0x1677E, size: 0x8, addend: 0x0, symName: __ZNSt3__114__map_iteratorINS_15__tree_iteratorINS_12__value_typeIi16MutationProposalEEPNS_11__tree_nodeIS4_PvEElEEEppB8ue170006Ev, symObjAddr: 0x3240, symBinAddr: 0x1000076C8, symSize: 0x2C }
  - { offsetInCU: 0x167A4, offset: 0x167A4, size: 0x8, addend: 0x0, symName: __ZNSt3__114basic_ofstreamIcNS_11char_traitsIcEEE5closeEv, symObjAddr: 0x326C, symBinAddr: 0x1000076F4, symSize: 0x58 }
  - { offsetInCU: 0x167CC, offset: 0x167CC, size: 0x8, addend: 0x0, symName: __ZNSt3__13mapIi16MutationProposalNS_4lessIiEENS_9allocatorINS_4pairIKiS1_EEEEED1B8ue170006Ev, symObjAddr: 0x32C4, symBinAddr: 0x10000774C, symSize: 0x2C }
  - { offsetInCU: 0x167FB, offset: 0x167FB, size: 0x8, addend: 0x0, symName: __ZNSt3__114basic_ofstreamIcNS_11char_traitsIcEEED1Ev, symObjAddr: 0x32F0, symBinAddr: 0x100007778, symSize: 0x70 }
  - { offsetInCU: 0x16828, offset: 0x16828, size: 0x8, addend: 0x0, symName: _main, symObjAddr: 0x3360, symBinAddr: 0x1000077E8, symSize: 0x374 }
  - { offsetInCU: 0x168C1, offset: 0x168C1, size: 0x8, addend: 0x0, symName: __ZNSt3__112basic_stringIcNS_11char_traitsIcEENS_9allocatorIcEEEC1B8ue170006ILi0EEEPKc, symObjAddr: 0x36D4, symBinAddr: 0x100007B5C, symSize: 0x34 }
  - { offsetInCU: 0x16900, offset: 0x16900, size: 0x8, addend: 0x0, symName: __ZNSt3__112basic_stringIcNS_11char_traitsIcEENS_9allocatorIcEEEpLB8ue170006ERKS5_, symObjAddr: 0x3708, symBinAddr: 0x100007B90, symSize: 0x2C }
  - { offsetInCU: 0x16935, offset: 0x16935, size: 0x8, addend: 0x0, symName: __ZN8SamEntryC2Ev, symObjAddr: 0x3734, symBinAddr: 0x100007BBC, symSize: 0x70 }
  - { offsetInCU: 0x16961, offset: 0x16961, size: 0x8, addend: 0x0, symName: __ZN8SamEntryD2Ev, symObjAddr: 0x37A4, symBinAddr: 0x100007C2C, symSize: 0x6C }
  - { offsetInCU: 0x1698D, offset: 0x1698D, size: 0x8, addend: 0x0, symName: __ZNSt3__119basic_istringstreamIcNS_11char_traitsIcEENS_9allocatorIcEEED2Ev, symObjAddr: 0x3810, symBinAddr: 0x100007C98, symSize: 0x9C }
  - { offsetInCU: 0x169C7, offset: 0x169C7, size: 0x8, addend: 0x0, symName: __ZTv0_n24_NSt3__119basic_istringstreamIcNS_11char_traitsIcEENS_9allocatorIcEEED1Ev, symObjAddr: 0x38AC, symBinAddr: 0x100007D34, symSize: 0x28 }
  - { offsetInCU: 0x169E3, offset: 0x169E3, size: 0x8, addend: 0x0, symName: __ZNSt3__115basic_stringbufIcNS_11char_traitsIcEENS_9allocatorIcEEED1Ev, symObjAddr: 0x38D4, symBinAddr: 0x100007D5C, symSize: 0x2C }
  - { offsetInCU: 0x16A10, offset: 0x16A10, size: 0x8, addend: 0x0, symName: __ZNSt3__115basic_stringbufIcNS_11char_traitsIcEENS_9allocatorIcEEED2Ev, symObjAddr: 0x3900, symBinAddr: 0x100007D88, symSize: 0x78 }
  - { offsetInCU: 0x16A3D, offset: 0x16A3D, size: 0x8, addend: 0x0, symName: __ZNSt3__114basic_ifstreamIcNS_11char_traitsIcEEED2Ev, symObjAddr: 0x3978, symBinAddr: 0x100007E00, symSize: 0x9C }
  - { offsetInCU: 0x16A77, offset: 0x16A77, size: 0x8, addend: 0x0, symName: __ZTv0_n24_NSt3__114basic_ifstreamIcNS_11char_traitsIcEEED1Ev, symObjAddr: 0x3A14, symBinAddr: 0x100007E9C, symSize: 0x28 }
  - { offsetInCU: 0x16A8E, offset: 0x16A8E, size: 0x8, addend: 0x0, symName: __ZNSt3__114basic_ofstreamIcNS_11char_traitsIcEEED2Ev, symObjAddr: 0x3A3C, symBinAddr: 0x100007EC4, symSize: 0x9C }
  - { offsetInCU: 0x16AC8, offset: 0x16AC8, size: 0x8, addend: 0x0, symName: __ZTv0_n24_NSt3__114basic_ofstreamIcNS_11char_traitsIcEEED1Ev, symObjAddr: 0x3AD8, symBinAddr: 0x100007F60, symSize: 0x28 }
  - { offsetInCU: 0x16ADF, offset: 0x16ADF, size: 0x8, addend: 0x0, symName: __ZNSt3__16vectorI8SamEntryNS_9allocatorIS1_EEEC2B8ue170006Ev, symObjAddr: 0x3B00, symBinAddr: 0x100007F88, symSize: 0x44 }
  - { offsetInCU: 0x16B15, offset: 0x16B15, size: 0x8, addend: 0x0, symName: __ZNSt3__117__compressed_pairIP8SamEntryNS_9allocatorIS1_EEEC1B8ue170006IDnNS_18__default_init_tagEEEOT_OT0_, symObjAddr: 0x3B44, symBinAddr: 0x100007FCC, symSize: 0x3C }
  - { offsetInCU: 0x16B6D, offset: 0x16B6D, size: 0x8, addend: 0x0, symName: __ZNSt3__117__compressed_pairIP8SamEntryNS_9allocatorIS1_EEEC2B8ue170006IDnNS_18__default_init_tagEEEOT_OT0_, symObjAddr: 0x3B80, symBinAddr: 0x100008008, symSize: 0x40 }
  - { offsetInCU: 0x16BC5, offset: 0x16BC5, size: 0x8, addend: 0x0, symName: __ZNSt3__122__compressed_pair_elemIP8SamEntryLi0ELb0EEC2B8ue170006IDnvEEOT_, symObjAddr: 0x3BC0, symBinAddr: 0x100008048, symSize: 0x1C }
  - { offsetInCU: 0x16C07, offset: 0x16C07, size: 0x8, addend: 0x0, symName: __ZNSt3__122__compressed_pair_elemINS_9allocatorI8SamEntryEELi1ELb1EEC2B8ue170006ENS_18__default_init_tagE, symObjAddr: 0x3BDC, symBinAddr: 0x100008064, symSize: 0x2C }
  - { offsetInCU: 0x16C3B, offset: 0x16C3B, size: 0x8, addend: 0x0, symName: __ZNSt3__19allocatorI8SamEntryEC2B8ue170006Ev, symObjAddr: 0x3C08, symBinAddr: 0x100008090, symSize: 0x2C }
  - { offsetInCU: 0x16C65, offset: 0x16C65, size: 0x8, addend: 0x0, symName: __ZNSt3__116__non_trivial_ifILb1ENS_9allocatorI8SamEntryEEEC2B8ue170006Ev, symObjAddr: 0x3C34, symBinAddr: 0x1000080BC, symSize: 0x14 }
  - { offsetInCU: 0x16C8F, offset: 0x16C8F, size: 0x8, addend: 0x0, symName: __ZNSt3__16vectorI8SamEntryNS_9allocatorIS1_EEED2B8ue170006Ev, symObjAddr: 0x3C48, symBinAddr: 0x1000080D0, symSize: 0x3C }
  - { offsetInCU: 0x16CB9, offset: 0x16CB9, size: 0x8, addend: 0x0, symName: __ZNSt3__16vectorI8SamEntryNS_9allocatorIS1_EEE16__destroy_vectorC1B8ue170006ERS4_, symObjAddr: 0x3C84, symBinAddr: 0x10000810C, symSize: 0x34 }
  - { offsetInCU: 0x16CF2, offset: 0x16CF2, size: 0x8, addend: 0x0, symName: __ZNSt3__16vectorI8SamEntryNS_9allocatorIS1_EEE16__destroy_vectorclB8ue170006Ev, symObjAddr: 0x3CB8, symBinAddr: 0x100008140, symSize: 0x90 }
  - { offsetInCU: 0x16D18, offset: 0x16D18, size: 0x8, addend: 0x0, symName: __ZNSt3__16vectorI8SamEntryNS_9allocatorIS1_EEE16__destroy_vectorC2B8ue170006ERS4_, symObjAddr: 0x3D48, symBinAddr: 0x1000081D0, symSize: 0x20 }
  - { offsetInCU: 0x16D51, offset: 0x16D51, size: 0x8, addend: 0x0, symName: __ZNSt3__16vectorI8SamEntryNS_9allocatorIS1_EEE7__clearB8ue170006Ev, symObjAddr: 0x3D68, symBinAddr: 0x1000081F0, symSize: 0x28 }
  - { offsetInCU: 0x16D77, offset: 0x16D77, size: 0x8, addend: 0x0, symName: __ZNKSt3__16vectorI8SamEntryNS_9allocatorIS1_EEE17__annotate_deleteB8ue170006Ev, symObjAddr: 0x3D90, symBinAddr: 0x100008218, symSize: 0xD4 }
  - { offsetInCU: 0x16D9D, offset: 0x16D9D, size: 0x8, addend: 0x0, symName: __ZNSt3__116allocator_traitsINS_9allocatorI8SamEntryEEE10deallocateB8ue170006ERS3_PS2_m, symObjAddr: 0x3E64, symBinAddr: 0x1000082EC, symSize: 0x34 }
  - { offsetInCU: 0x16DDF, offset: 0x16DDF, size: 0x8, addend: 0x0, symName: __ZNSt3__16vectorI8SamEntryNS_9allocatorIS1_EEE7__allocB8ue170006Ev, symObjAddr: 0x3E98, symBinAddr: 0x100008320, symSize: 0x28 }
  - { offsetInCU: 0x16E05, offset: 0x16E05, size: 0x8, addend: 0x0, symName: __ZNKSt3__16vectorI8SamEntryNS_9allocatorIS1_EEE8capacityB8ue170006Ev, symObjAddr: 0x3EC0, symBinAddr: 0x100008348, symSize: 0x40 }
  - { offsetInCU: 0x16E2B, offset: 0x16E2B, size: 0x8, addend: 0x0, symName: __ZNSt3__16vectorI8SamEntryNS_9allocatorIS1_EEE22__base_destruct_at_endB8ue170006EPS1_, symObjAddr: 0x3F00, symBinAddr: 0x100008388, symSize: 0xA0 }
  - { offsetInCU: 0x16E6F, offset: 0x16E6F, size: 0x8, addend: 0x0, symName: __ZNSt3__116allocator_traitsINS_9allocatorI8SamEntryEEE7destroyB8ue170006IS2_vEEvRS3_PT_, symObjAddr: 0x3FA0, symBinAddr: 0x100008428, symSize: 0x2C }
  - { offsetInCU: 0x16EAC, offset: 0x16EAC, size: 0x8, addend: 0x0, symName: __ZNSt3__19allocatorI8SamEntryE7destroyB8ue170006EPS1_, symObjAddr: 0x3FE0, symBinAddr: 0x100008468, symSize: 0x28 }
  - { offsetInCU: 0x16EE0, offset: 0x16EE0, size: 0x8, addend: 0x0, symName: __ZNKSt3__16vectorI8SamEntryNS_9allocatorIS1_EEE31__annotate_contiguous_containerB8ue170006EPKvS6_S6_S6_, symObjAddr: 0x4008, symBinAddr: 0x100008490, symSize: 0x20 }
  - { offsetInCU: 0x16F32, offset: 0x16F32, size: 0x8, addend: 0x0, symName: __ZNKSt3__16vectorI8SamEntryNS_9allocatorIS1_EEE4dataB8ue170006Ev, symObjAddr: 0x4028, symBinAddr: 0x1000084B0, symSize: 0x28 }
  - { offsetInCU: 0x16F58, offset: 0x16F58, size: 0x8, addend: 0x0, symName: __ZNKSt3__16vectorI8SamEntryNS_9allocatorIS1_EEE4sizeB8ue170006Ev, symObjAddr: 0x4050, symBinAddr: 0x1000084D8, symSize: 0x28 }
  - { offsetInCU: 0x16F7E, offset: 0x16F7E, size: 0x8, addend: 0x0, symName: __ZNSt3__19allocatorI8SamEntryE10deallocateB8ue170006EPS1_m, symObjAddr: 0x4078, symBinAddr: 0x100008500, symSize: 0x74 }
  - { offsetInCU: 0x16FC0, offset: 0x16FC0, size: 0x8, addend: 0x0, symName: __ZNSt3__117__compressed_pairIP8SamEntryNS_9allocatorIS1_EEE6secondB8ue170006Ev, symObjAddr: 0x4174, symBinAddr: 0x1000085FC, symSize: 0x24 }
  - { offsetInCU: 0x16FE6, offset: 0x16FE6, size: 0x8, addend: 0x0, symName: __ZNSt3__122__compressed_pair_elemINS_9allocatorI8SamEntryEELi1ELb1EE5__getB8ue170006Ev, symObjAddr: 0x4198, symBinAddr: 0x100008620, symSize: 0x14 }
  - { offsetInCU: 0x1700C, offset: 0x1700C, size: 0x8, addend: 0x0, symName: __ZNKSt3__16vectorI8SamEntryNS_9allocatorIS1_EEE9__end_capB8ue170006Ev, symObjAddr: 0x41AC, symBinAddr: 0x100008634, symSize: 0x28 }
  - { offsetInCU: 0x17032, offset: 0x17032, size: 0x8, addend: 0x0, symName: __ZNKSt3__117__compressed_pairIP8SamEntryNS_9allocatorIS1_EEE5firstB8ue170006Ev, symObjAddr: 0x41D4, symBinAddr: 0x10000865C, symSize: 0x24 }
  - { offsetInCU: 0x17058, offset: 0x17058, size: 0x8, addend: 0x0, symName: __ZNKSt3__122__compressed_pair_elemIP8SamEntryLi0ELb0EE5__getB8ue170006Ev, symObjAddr: 0x41F8, symBinAddr: 0x100008680, symSize: 0x14 }
  - { offsetInCU: 0x1707E, offset: 0x1707E, size: 0x8, addend: 0x0, symName: __ZNSt3__19basic_iosIcNS_11char_traitsIcEEEC2B8ue170006Ev, symObjAddr: 0x420C, symBinAddr: 0x100008694, symSize: 0x44 }
  - { offsetInCU: 0x170A8, offset: 0x170A8, size: 0x8, addend: 0x0, symName: __ZNSt3__113basic_istreamIcNS_11char_traitsIcEEEC2B8ue170006EPNS_15basic_streambufIcS2_EE, symObjAddr: 0x4250, symBinAddr: 0x1000086D8, symSize: 0x64 }
  - { offsetInCU: 0x170ED, offset: 0x170ED, size: 0x8, addend: 0x0, symName: __ZNSt3__113basic_filebufIcNS_11char_traitsIcEEE4openERKNS_12basic_stringIcS2_NS_9allocatorIcEEEEj, symObjAddr: 0x42B4, symBinAddr: 0x10000873C, symSize: 0x44 }
  - { offsetInCU: 0x17131, offset: 0x17131, size: 0x8, addend: 0x0, symName: __ZNSt3__19basic_iosIcNS_11char_traitsIcEEE8setstateB8ue170006Ej, symObjAddr: 0x42F8, symBinAddr: 0x100008780, symSize: 0x2C }
  - { offsetInCU: 0x17166, offset: 0x17166, size: 0x8, addend: 0x0, symName: __ZNSt3__18ios_baseC2B8ue170006Ev, symObjAddr: 0x4324, symBinAddr: 0x1000087AC, symSize: 0x24 }
  - { offsetInCU: 0x17190, offset: 0x17190, size: 0x8, addend: 0x0, symName: __ZNSt3__19basic_iosIcNS_11char_traitsIcEEE4initB8ue170006EPNS_15basic_streambufIcS2_EE, symObjAddr: 0x4348, symBinAddr: 0x1000087D0, symSize: 0x44 }
  - { offsetInCU: 0x171C7, offset: 0x171C7, size: 0x8, addend: 0x0, symName: __ZNSt3__111char_traitsIcE3eofB8ue170006Ev, symObjAddr: 0x438C, symBinAddr: 0x100008814, symSize: 0x8 }
  - { offsetInCU: 0x171DB, offset: 0x171DB, size: 0x8, addend: 0x0, symName: __ZNKSt3__112basic_stringIcNS_11char_traitsIcEENS_9allocatorIcEEE5c_strB8ue170006Ev, symObjAddr: 0x4394, symBinAddr: 0x10000881C, symSize: 0x24 }
  - { offsetInCU: 0x17201, offset: 0x17201, size: 0x8, addend: 0x0, symName: __ZNKSt3__112basic_stringIcNS_11char_traitsIcEENS_9allocatorIcEEE4dataB8ue170006Ev, symObjAddr: 0x43B8, symBinAddr: 0x100008840, symSize: 0x28 }
  - { offsetInCU: 0x17227, offset: 0x17227, size: 0x8, addend: 0x0, symName: __ZNKSt3__112basic_stringIcNS_11char_traitsIcEENS_9allocatorIcEEE13__get_pointerB8ue170006Ev, symObjAddr: 0x43F4, symBinAddr: 0x10000887C, symSize: 0x54 }
  - { offsetInCU: 0x1724D, offset: 0x1724D, size: 0x8, addend: 0x0, symName: __ZNKSt3__112basic_stringIcNS_11char_traitsIcEENS_9allocatorIcEEE9__is_longB8ue170006Ev, symObjAddr: 0x4448, symBinAddr: 0x1000088D0, symSize: 0x74 }
  - { offsetInCU: 0x17273, offset: 0x17273, size: 0x8, addend: 0x0, symName: __ZNKSt3__112basic_stringIcNS_11char_traitsIcEENS_9allocatorIcEEE18__get_long_pointerB8ue170006Ev, symObjAddr: 0x44BC, symBinAddr: 0x100008944, symSize: 0x28 }
  - { offsetInCU: 0x17299, offset: 0x17299, size: 0x8, addend: 0x0, symName: __ZNKSt3__112basic_stringIcNS_11char_traitsIcEENS_9allocatorIcEEE19__get_short_pointerB8ue170006Ev, symObjAddr: 0x44E4, symBinAddr: 0x10000896C, symSize: 0x28 }
  - { offsetInCU: 0x172BF, offset: 0x172BF, size: 0x8, addend: 0x0, symName: __ZNKSt3__117__compressed_pairINS_12basic_stringIcNS_11char_traitsIcEENS_9allocatorIcEEE5__repES5_E5firstB8ue170006Ev, symObjAddr: 0x450C, symBinAddr: 0x100008994, symSize: 0x24 }
  - { offsetInCU: 0x172E5, offset: 0x172E5, size: 0x8, addend: 0x0, symName: __ZNKSt3__122__compressed_pair_elemINS_12basic_stringIcNS_11char_traitsIcEENS_9allocatorIcEEE5__repELi0ELb0EE5__getB8ue170006Ev, symObjAddr: 0x4530, symBinAddr: 0x1000089B8, symSize: 0x14 }
  - { offsetInCU: 0x1730B, offset: 0x1730B, size: 0x8, addend: 0x0, symName: __ZNSt3__114pointer_traitsIPKcE10pointer_toB8ue170006ERS1_, symObjAddr: 0x4544, symBinAddr: 0x1000089CC, symSize: 0x14 }
  - { offsetInCU: 0x1732E, offset: 0x1732E, size: 0x8, addend: 0x0, symName: __ZNSt3__18ios_base8setstateB8ue170006Ej, symObjAddr: 0x4558, symBinAddr: 0x1000089E0, symSize: 0x34 }
  - { offsetInCU: 0x17365, offset: 0x17365, size: 0x8, addend: 0x0, symName: __ZNKSt3__19basic_iosIcNS_11char_traitsIcEEE4failB8ue170006Ev, symObjAddr: 0x458C, symBinAddr: 0x100008A14, symSize: 0x28 }
  - { offsetInCU: 0x1738B, offset: 0x1738B, size: 0x8, addend: 0x0, symName: __ZNKSt3__18ios_base4failB8ue170006Ev, symObjAddr: 0x45B4, symBinAddr: 0x100008A3C, symSize: 0x28 }
  - { offsetInCU: 0x173B3, offset: 0x173B3, size: 0x8, addend: 0x0, symName: __ZNSt3__111char_traitsIcE6lengthB8ue170006EPKc, symObjAddr: 0x47D0, symBinAddr: 0x100008C58, symSize: 0x48 }
  - { offsetInCU: 0x173F4, offset: 0x173F4, size: 0x8, addend: 0x0, symName: __ZNKSt3__113basic_ostreamIcNS_11char_traitsIcEEE6sentrycvbB8ue170006Ev, symObjAddr: 0x4818, symBinAddr: 0x100008CA0, symSize: 0x1C }
  - { offsetInCU: 0x1741A, offset: 0x1741A, size: 0x8, addend: 0x0, symName: __ZNSt3__119ostreambuf_iteratorIcNS_11char_traitsIcEEEC1B8ue170006ERNS_13basic_ostreamIcS2_EE, symObjAddr: 0x4A7C, symBinAddr: 0x100008F04, symSize: 0x34 }
  - { offsetInCU: 0x17452, offset: 0x17452, size: 0x8, addend: 0x0, symName: __ZNKSt3__18ios_base5flagsB8ue170006Ev, symObjAddr: 0x4AB0, symBinAddr: 0x100008F38, symSize: 0x18 }
  - { offsetInCU: 0x1747A, offset: 0x1747A, size: 0x8, addend: 0x0, symName: __ZNKSt3__19basic_iosIcNS_11char_traitsIcEEE4fillB8ue170006Ev, symObjAddr: 0x4AC8, symBinAddr: 0x100008F50, symSize: 0x64 }
  - { offsetInCU: 0x174A2, offset: 0x174A2, size: 0x8, addend: 0x0, symName: __ZNKSt3__119ostreambuf_iteratorIcNS_11char_traitsIcEEE6failedB8ue170006Ev, symObjAddr: 0x4B2C, symBinAddr: 0x100008FB4, symSize: 0x24 }
  - { offsetInCU: 0x174C8, offset: 0x174C8, size: 0x8, addend: 0x0, symName: __ZNKSt3__18ios_base5widthB8ue170006Ev, symObjAddr: 0x4B50, symBinAddr: 0x100008FD8, symSize: 0x18 }
  - { offsetInCU: 0x174F0, offset: 0x174F0, size: 0x8, addend: 0x0, symName: __ZNSt3__115basic_streambufIcNS_11char_traitsIcEEE5sputnB8ue170006EPKcl, symObjAddr: 0x4B68, symBinAddr: 0x100008FF0, symSize: 0x3C }
  - { offsetInCU: 0x17532, offset: 0x17532, size: 0x8, addend: 0x0, symName: __ZNSt3__112basic_stringIcNS_11char_traitsIcEENS_9allocatorIcEEEC1B8ue170006Emc, symObjAddr: 0x4BA4, symBinAddr: 0x10000902C, symSize: 0x3C }
  - { offsetInCU: 0x1757A, offset: 0x1757A, size: 0x8, addend: 0x0, symName: __ZNSt3__18ios_base5widthB8ue170006El, symObjAddr: 0x4BE0, symBinAddr: 0x100009068, symSize: 0x2C }
  - { offsetInCU: 0x175C0, offset: 0x175C0, size: 0x8, addend: 0x0, symName: __ZNSt3__112basic_stringIcNS_11char_traitsIcEENS_9allocatorIcEEEC2B8ue170006Emc, symObjAddr: 0x4C0C, symBinAddr: 0x100009094, symSize: 0x4C }
  - { offsetInCU: 0x17608, offset: 0x17608, size: 0x8, addend: 0x0, symName: __ZNSt3__117__compressed_pairINS_12basic_stringIcNS_11char_traitsIcEENS_9allocatorIcEEE5__repES5_EC1B8ue170006INS_18__default_init_tagESA_EEOT_OT0_, symObjAddr: 0x4C58, symBinAddr: 0x1000090E0, symSize: 0x3C }
  - { offsetInCU: 0x17660, offset: 0x17660, size: 0x8, addend: 0x0, symName: __ZNSt3__117__compressed_pairINS_12basic_stringIcNS_11char_traitsIcEENS_9allocatorIcEEE5__repES5_EC2B8ue170006INS_18__default_init_tagESA_EEOT_OT0_, symObjAddr: 0x4C94, symBinAddr: 0x10000911C, symSize: 0x3C }
  - { offsetInCU: 0x176B8, offset: 0x176B8, size: 0x8, addend: 0x0, symName: __ZNSt3__122__compressed_pair_elemINS_12basic_stringIcNS_11char_traitsIcEENS_9allocatorIcEEE5__repELi0ELb0EEC2B8ue170006ENS_18__default_init_tagE, symObjAddr: 0x4CD0, symBinAddr: 0x100009158, symSize: 0x14 }
  - { offsetInCU: 0x176EC, offset: 0x176EC, size: 0x8, addend: 0x0, symName: __ZNSt3__122__compressed_pair_elemINS_9allocatorIcEELi1ELb1EEC2B8ue170006ENS_18__default_init_tagE, symObjAddr: 0x4CE4, symBinAddr: 0x10000916C, symSize: 0x2C }
  - { offsetInCU: 0x17720, offset: 0x17720, size: 0x8, addend: 0x0, symName: __ZNSt3__19allocatorIcEC2B8ue170006Ev, symObjAddr: 0x4D10, symBinAddr: 0x100009198, symSize: 0x2C }
  - { offsetInCU: 0x1774A, offset: 0x1774A, size: 0x8, addend: 0x0, symName: __ZNSt3__116__non_trivial_ifILb1ENS_9allocatorIcEEEC2B8ue170006Ev, symObjAddr: 0x4D3C, symBinAddr: 0x1000091C4, symSize: 0x14 }
  - { offsetInCU: 0x17774, offset: 0x17774, size: 0x8, addend: 0x0, symName: __ZNSt3__119ostreambuf_iteratorIcNS_11char_traitsIcEEEC2B8ue170006ERNS_13basic_ostreamIcS2_EE, symObjAddr: 0x4D50, symBinAddr: 0x1000091D8, symSize: 0x68 }
  - { offsetInCU: 0x177AC, offset: 0x177AC, size: 0x8, addend: 0x0, symName: __ZNKSt3__19basic_iosIcNS_11char_traitsIcEEE5rdbufB8ue170006Ev, symObjAddr: 0x4DB8, symBinAddr: 0x100009240, symSize: 0x24 }
  - { offsetInCU: 0x177D4, offset: 0x177D4, size: 0x8, addend: 0x0, symName: __ZNKSt3__18ios_base5rdbufB8ue170006Ev, symObjAddr: 0x4DDC, symBinAddr: 0x100009264, symSize: 0x18 }
  - { offsetInCU: 0x177FA, offset: 0x177FA, size: 0x8, addend: 0x0, symName: __ZNSt3__111char_traitsIcE11eq_int_typeB8ue170006Eii, symObjAddr: 0x4DF4, symBinAddr: 0x10000927C, symSize: 0x28 }
  - { offsetInCU: 0x1782D, offset: 0x1782D, size: 0x8, addend: 0x0, symName: __ZNKSt3__19basic_iosIcNS_11char_traitsIcEEE5widenB8ue170006Ec, symObjAddr: 0x4E1C, symBinAddr: 0x1000092A4, symSize: 0x8C }
  - { offsetInCU: 0x17891, offset: 0x17891, size: 0x8, addend: 0x0, symName: __ZNKSt3__15ctypeIcE5widenB8ue170006Ec, symObjAddr: 0x4ED4, symBinAddr: 0x10000935C, symSize: 0x38 }
  - { offsetInCU: 0x178C6, offset: 0x178C6, size: 0x8, addend: 0x0, symName: __ZNSt3__112basic_stringIcNS_11char_traitsIcEENS_9allocatorIcEEEC2B8ue170006Ev, symObjAddr: 0x4F30, symBinAddr: 0x1000093B8, symSize: 0x3C }
  - { offsetInCU: 0x178F0, offset: 0x178F0, size: 0x8, addend: 0x0, symName: __ZNSt3__112basic_stringIcNS_11char_traitsIcEENS_9allocatorIcEEE14__default_initB8ue170006Ev, symObjAddr: 0x4F6C, symBinAddr: 0x1000093F4, symSize: 0xB0 }
  - { offsetInCU: 0x17942, offset: 0x17942, size: 0x8, addend: 0x0, symName: __ZNSt3__117__compressed_pairINS_12basic_stringIcNS_11char_traitsIcEENS_9allocatorIcEEE5__repES5_E5firstB8ue170006Ev, symObjAddr: 0x501C, symBinAddr: 0x1000094A4, symSize: 0x24 }
  - { offsetInCU: 0x17968, offset: 0x17968, size: 0x8, addend: 0x0, symName: __ZNSt3__112basic_stringIcNS_11char_traitsIcEENS_9allocatorIcEEE11__recommendB8ue170006Em, symObjAddr: 0x5040, symBinAddr: 0x1000094C8, symSize: 0x9C }
  - { offsetInCU: 0x1799B, offset: 0x1799B, size: 0x8, addend: 0x0, symName: __ZNSt3__116allocator_traitsINS_9allocatorIcEEE8allocateB8ue170006ERS2_m, symObjAddr: 0x50DC, symBinAddr: 0x100009564, symSize: 0x2C }
  - { offsetInCU: 0x179CE, offset: 0x179CE, size: 0x8, addend: 0x0, symName: __ZNSt3__112basic_stringIcNS_11char_traitsIcEENS_9allocatorIcEEE7__allocB8ue170006Ev, symObjAddr: 0x5108, symBinAddr: 0x100009590, symSize: 0x24 }
  - { offsetInCU: 0x179F4, offset: 0x179F4, size: 0x8, addend: 0x0, symName: __ZNSt3__112basic_stringIcNS_11char_traitsIcEENS_9allocatorIcEEE16__begin_lifetimeB8ue170006EPcm, symObjAddr: 0x512C, symBinAddr: 0x1000095B4, symSize: 0x14 }
  - { offsetInCU: 0x17A27, offset: 0x17A27, size: 0x8, addend: 0x0, symName: __ZNSt3__112basic_stringIcNS_11char_traitsIcEENS_9allocatorIcEEE18__set_long_pointerB8ue170006EPc, symObjAddr: 0x5140, symBinAddr: 0x1000095C8, symSize: 0x38 }
  - { offsetInCU: 0x17A5C, offset: 0x17A5C, size: 0x8, addend: 0x0, symName: __ZNSt3__112basic_stringIcNS_11char_traitsIcEENS_9allocatorIcEEE14__set_long_capB8ue170006Em, symObjAddr: 0x5178, symBinAddr: 0x100009600, symSize: 0x70 }
  - { offsetInCU: 0x17A91, offset: 0x17A91, size: 0x8, addend: 0x0, symName: __ZNSt3__112basic_stringIcNS_11char_traitsIcEENS_9allocatorIcEEE15__set_long_sizeB8ue170006Em, symObjAddr: 0x51E8, symBinAddr: 0x100009670, symSize: 0x38 }
  - { offsetInCU: 0x17AC6, offset: 0x17AC6, size: 0x8, addend: 0x0, symName: __ZNSt3__122__compressed_pair_elemINS_12basic_stringIcNS_11char_traitsIcEENS_9allocatorIcEEE5__repELi0ELb0EE5__getB8ue170006Ev, symObjAddr: 0x5220, symBinAddr: 0x1000096A8, symSize: 0x14 }
  - { offsetInCU: 0x17AEC, offset: 0x17AEC, size: 0x8, addend: 0x0, symName: __ZNSt3__112basic_stringIcNS_11char_traitsIcEENS_9allocatorIcEEE10__align_itB8ue170006ILm16EEEmm, symObjAddr: 0x5234, symBinAddr: 0x1000096BC, symSize: 0x1C }
  - { offsetInCU: 0x17B1A, offset: 0x17B1A, size: 0x8, addend: 0x0, symName: __ZNSt3__19allocatorIcE8allocateB8ue170006Em, symObjAddr: 0x5250, symBinAddr: 0x1000096D8, symSize: 0x84 }
  - { offsetInCU: 0x17B58, offset: 0x17B58, size: 0x8, addend: 0x0, symName: __ZNSt3__116allocator_traitsINS_9allocatorIcEEE8max_sizeB8ue170006IS2_vEEmRKS2_, symObjAddr: 0x52D4, symBinAddr: 0x10000975C, symSize: 0x24 }
  - { offsetInCU: 0x17B86, offset: 0x17B86, size: 0x8, addend: 0x0, symName: __ZNKSt3__19allocatorIcE8max_sizeB8ue170006Ev, symObjAddr: 0x5354, symBinAddr: 0x1000097DC, symSize: 0x14 }
  - { offsetInCU: 0x17BAC, offset: 0x17BAC, size: 0x8, addend: 0x0, symName: __ZNSt3__117__compressed_pairINS_12basic_stringIcNS_11char_traitsIcEENS_9allocatorIcEEE5__repES5_E6secondB8ue170006Ev, symObjAddr: 0x538C, symBinAddr: 0x100009814, symSize: 0x24 }
  - { offsetInCU: 0x17BD2, offset: 0x17BD2, size: 0x8, addend: 0x0, symName: __ZNSt3__122__compressed_pair_elemINS_9allocatorIcEELi1ELb1EE5__getB8ue170006Ev, symObjAddr: 0x53B0, symBinAddr: 0x100009838, symSize: 0x14 }
  - { offsetInCU: 0x17C16, offset: 0x17C16, size: 0x8, addend: 0x0, symName: __ZNKSt3__113basic_istreamIcNS_11char_traitsIcEEE6sentrycvbB8ue170006Ev, symObjAddr: 0x55FC, symBinAddr: 0x100009A84, symSize: 0x1C }
  - { offsetInCU: 0x17C3C, offset: 0x17C3C, size: 0x8, addend: 0x0, symName: __ZNSt3__112basic_stringIcNS_11char_traitsIcEENS_9allocatorIcEEE5clearB8ue170006Ev, symObjAddr: 0x5618, symBinAddr: 0x100009AA0, symSize: 0x78 }
  - { offsetInCU: 0x17C64, offset: 0x17C64, size: 0x8, addend: 0x0, symName: __ZNSt3__115basic_streambufIcNS_11char_traitsIcEEE6sbumpcB8ue170006Ev, symObjAddr: 0x5690, symBinAddr: 0x100009B18, symSize: 0x78 }
  - { offsetInCU: 0x17C8A, offset: 0x17C8A, size: 0x8, addend: 0x0, symName: __ZNSt3__111char_traitsIcE12to_char_typeB8ue170006Ei, symObjAddr: 0x5708, symBinAddr: 0x100009B90, symSize: 0x18 }
  - { offsetInCU: 0x17CAD, offset: 0x17CAD, size: 0x8, addend: 0x0, symName: __ZNSt3__111char_traitsIcE2eqEcc, symObjAddr: 0x5720, symBinAddr: 0x100009BA8, symSize: 0x28 }
  - { offsetInCU: 0x17CDE, offset: 0x17CDE, size: 0x8, addend: 0x0, symName: __ZNKSt3__112basic_stringIcNS_11char_traitsIcEENS_9allocatorIcEEE8max_sizeB8ue170006Ev, symObjAddr: 0x5748, symBinAddr: 0x100009BD0, symSize: 0xAC }
  - { offsetInCU: 0x17D30, offset: 0x17D30, size: 0x8, addend: 0x0, symName: __ZNSt3__18ios_base18__setstate_nothrowB8ue170006Ej, symObjAddr: 0x57F4, symBinAddr: 0x100009C7C, symSize: 0x64 }
  - { offsetInCU: 0x17D65, offset: 0x17D65, size: 0x8, addend: 0x0, symName: __ZNKSt3__19basic_iosIcNS_11char_traitsIcEEE10exceptionsB8ue170006Ev, symObjAddr: 0x5858, symBinAddr: 0x100009CE0, symSize: 0x24 }
  - { offsetInCU: 0x17D8B, offset: 0x17D8B, size: 0x8, addend: 0x0, symName: __ZNSt3__111char_traitsIcE6assignB8ue170006ERcRKc, symObjAddr: 0x587C, symBinAddr: 0x100009D04, symSize: 0x24 }
  - { offsetInCU: 0x17DBC, offset: 0x17DBC, size: 0x8, addend: 0x0, symName: __ZNSt3__112basic_stringIcNS_11char_traitsIcEENS_9allocatorIcEEE18__get_long_pointerB8ue170006Ev, symObjAddr: 0x58A0, symBinAddr: 0x100009D28, symSize: 0x28 }
  - { offsetInCU: 0x17DE2, offset: 0x17DE2, size: 0x8, addend: 0x0, symName: __ZNSt3__112basic_stringIcNS_11char_traitsIcEENS_9allocatorIcEEE19__get_short_pointerB8ue170006Ev, symObjAddr: 0x58C8, symBinAddr: 0x100009D50, symSize: 0x28 }
  - { offsetInCU: 0x17E08, offset: 0x17E08, size: 0x8, addend: 0x0, symName: __ZNSt3__112basic_stringIcNS_11char_traitsIcEENS_9allocatorIcEEE16__set_short_sizeB8ue170006Em, symObjAddr: 0x58F0, symBinAddr: 0x100009D78, symSize: 0x78 }
  - { offsetInCU: 0x17E3D, offset: 0x17E3D, size: 0x8, addend: 0x0, symName: __ZNSt3__114pointer_traitsIPcE10pointer_toB8ue170006ERc, symObjAddr: 0x5968, symBinAddr: 0x100009DF0, symSize: 0x14 }
  - { offsetInCU: 0x17E60, offset: 0x17E60, size: 0x8, addend: 0x0, symName: __ZNSt3__111char_traitsIcE11to_int_typeB8ue170006Ec, symObjAddr: 0x597C, symBinAddr: 0x100009E04, symSize: 0x14 }
  - { offsetInCU: 0x17E84, offset: 0x17E84, size: 0x8, addend: 0x0, symName: __ZNKSt3__112basic_stringIcNS_11char_traitsIcEENS_9allocatorIcEEE7__allocB8ue170006Ev, symObjAddr: 0x5990, symBinAddr: 0x100009E18, symSize: 0x24 }
  - { offsetInCU: 0x17EAA, offset: 0x17EAA, size: 0x8, addend: 0x0, symName: __ZNSt3__114numeric_limitsImE3maxB8ue170006Ev, symObjAddr: 0x59B4, symBinAddr: 0x100009E3C, symSize: 0x14 }
  - { offsetInCU: 0x17EBE, offset: 0x17EBE, size: 0x8, addend: 0x0, symName: __ZNKSt3__117__compressed_pairINS_12basic_stringIcNS_11char_traitsIcEENS_9allocatorIcEEE5__repES5_E6secondB8ue170006Ev, symObjAddr: 0x59C8, symBinAddr: 0x100009E50, symSize: 0x24 }
  - { offsetInCU: 0x17EE4, offset: 0x17EE4, size: 0x8, addend: 0x0, symName: __ZNKSt3__122__compressed_pair_elemINS_9allocatorIcEELi1ELb1EE5__getB8ue170006Ev, symObjAddr: 0x59EC, symBinAddr: 0x100009E74, symSize: 0x14 }
  - { offsetInCU: 0x17F0A, offset: 0x17F0A, size: 0x8, addend: 0x0, symName: __ZNSt3__123__libcpp_numeric_limitsImLb1EE3maxB8ue170006Ev, symObjAddr: 0x5A00, symBinAddr: 0x100009E88, symSize: 0x8 }
  - { offsetInCU: 0x17F1E, offset: 0x17F1E, size: 0x8, addend: 0x0, symName: __ZNKSt3__18ios_base10exceptionsB8ue170006Ev, symObjAddr: 0x5A08, symBinAddr: 0x100009E90, symSize: 0x18 }
  - { offsetInCU: 0x17F46, offset: 0x17F46, size: 0x8, addend: 0x0, symName: __ZNSt3__112basic_stringIcNS_11char_traitsIcEENS_9allocatorIcEEE13__get_pointerB8ue170006Ev, symObjAddr: 0x5A20, symBinAddr: 0x100009EA8, symSize: 0x54 }
  - { offsetInCU: 0x17F6C, offset: 0x17F6C, size: 0x8, addend: 0x0, symName: __ZNSt3__115basic_stringbufIcNS_11char_traitsIcEENS_9allocatorIcEEEC1B8ue170006ERKNS_12basic_stringIcS2_S4_EEj, symObjAddr: 0x5A74, symBinAddr: 0x100009EFC, symSize: 0x3C }
  - { offsetInCU: 0x17FB4, offset: 0x17FB4, size: 0x8, addend: 0x0, symName: __ZNSt3__115basic_stringbufIcNS_11char_traitsIcEENS_9allocatorIcEEEC2B8ue170006ERKNS_12basic_stringIcS2_S4_EEj, symObjAddr: 0x5AB0, symBinAddr: 0x100009F38, symSize: 0xD8 }
  - { offsetInCU: 0x17FFC, offset: 0x17FFC, size: 0x8, addend: 0x0, symName: __ZNKSt3__112basic_stringIcNS_11char_traitsIcEENS_9allocatorIcEEE13get_allocatorB8ue170006Ev, symObjAddr: 0x5B88, symBinAddr: 0x10000A010, symSize: 0x24 }
  - { offsetInCU: 0x18022, offset: 0x18022, size: 0x8, addend: 0x0, symName: __ZNSt3__112basic_stringIcNS_11char_traitsIcEENS_9allocatorIcEEEC1B8ue170006ERKS4_, symObjAddr: 0x5BAC, symBinAddr: 0x10000A034, symSize: 0x34 }
  - { offsetInCU: 0x1805B, offset: 0x1805B, size: 0x8, addend: 0x0, symName: __ZNSt3__112basic_stringIcNS_11char_traitsIcEENS_9allocatorIcEEEC2B8ue170006ERKS4_, symObjAddr: 0x5BE0, symBinAddr: 0x10000A068, symSize: 0x40 }
  - { offsetInCU: 0x18094, offset: 0x18094, size: 0x8, addend: 0x0, symName: __ZNSt3__117__compressed_pairINS_12basic_stringIcNS_11char_traitsIcEENS_9allocatorIcEEE5__repES5_EC1B8ue170006INS_18__default_init_tagERKS5_EEOT_OT0_, symObjAddr: 0x5C20, symBinAddr: 0x10000A0A8, symSize: 0x3C }
  - { offsetInCU: 0x180EC, offset: 0x180EC, size: 0x8, addend: 0x0, symName: __ZNSt3__117__compressed_pairINS_12basic_stringIcNS_11char_traitsIcEENS_9allocatorIcEEE5__repES5_EC2B8ue170006INS_18__default_init_tagERKS5_EEOT_OT0_, symObjAddr: 0x5C5C, symBinAddr: 0x10000A0E4, symSize: 0x40 }
  - { offsetInCU: 0x18144, offset: 0x18144, size: 0x8, addend: 0x0, symName: __ZNSt3__122__compressed_pair_elemINS_9allocatorIcEELi1ELb1EEC2B8ue170006IRKS2_vEEOT_, symObjAddr: 0x5C9C, symBinAddr: 0x10000A124, symSize: 0x18 }
  - { offsetInCU: 0x18186, offset: 0x18186, size: 0x8, addend: 0x0, symName: __ZNSt3__114numeric_limitsIlE3maxB8ue170006Ev, symObjAddr: 0x5CB4, symBinAddr: 0x10000A13C, symSize: 0x14 }
  - { offsetInCU: 0x1819A, offset: 0x1819A, size: 0x8, addend: 0x0, symName: __ZNSt3__115basic_streambufIcNS_11char_traitsIcEEE5sgetcB8ue170006Ev, symObjAddr: 0x5CC8, symBinAddr: 0x10000A150, symSize: 0x70 }
  - { offsetInCU: 0x181C0, offset: 0x181C0, size: 0x8, addend: 0x0, symName: __ZNKSt3__15ctypeIcE2isB8ue170006Ejc, symObjAddr: 0x5D38, symBinAddr: 0x10000A1C0, symSize: 0x7C }
  - { offsetInCU: 0x18204, offset: 0x18204, size: 0x8, addend: 0x0, symName: __ZNSt3__123__libcpp_numeric_limitsIlLb1EE3maxB8ue170006Ev, symObjAddr: 0x5DB4, symBinAddr: 0x10000A23C, symSize: 0x8 }
  - { offsetInCU: 0x18217, offset: 0x18217, size: 0x8, addend: 0x0, symName: __Z7isasciii, symObjAddr: 0x5DBC, symBinAddr: 0x10000A244, symSize: 0x24 }
  - { offsetInCU: 0x18244, offset: 0x18244, size: 0x8, addend: 0x0, symName: __ZNSt3__16vectorI8SamEntryNS_9allocatorIS1_EEE9__end_capB8ue170006Ev, symObjAddr: 0x5DE0, symBinAddr: 0x10000A268, symSize: 0x28 }
  - { offsetInCU: 0x1826A, offset: 0x1826A, size: 0x8, addend: 0x0, symName: __ZNSt3__16vectorI8SamEntryNS_9allocatorIS1_EEE22__construct_one_at_endB8ue170006IJRKS1_EEEvDpOT_, symObjAddr: 0x5E08, symBinAddr: 0x10000A290, symSize: 0x98 }
  - { offsetInCU: 0x182B9, offset: 0x182B9, size: 0x8, addend: 0x0, symName: __ZNSt3__16vectorI8SamEntryNS_9allocatorIS1_EEE21__push_back_slow_pathIRKS1_EEvOT_, symObjAddr: 0x5EA0, symBinAddr: 0x10000A328, symSize: 0xE0 }
  - { offsetInCU: 0x18317, offset: 0x18317, size: 0x8, addend: 0x0, symName: __ZNSt3__117__compressed_pairIP8SamEntryNS_9allocatorIS1_EEE5firstB8ue170006Ev, symObjAddr: 0x5F80, symBinAddr: 0x10000A408, symSize: 0x24 }
  - { offsetInCU: 0x1833D, offset: 0x1833D, size: 0x8, addend: 0x0, symName: __ZNSt3__122__compressed_pair_elemIP8SamEntryLi0ELb0EE5__getB8ue170006Ev, symObjAddr: 0x5FA4, symBinAddr: 0x10000A42C, symSize: 0x14 }
  - { offsetInCU: 0x1837C, offset: 0x1837C, size: 0x8, addend: 0x0, symName: __ZNSt3__16vectorI8SamEntryNS_9allocatorIS1_EEE21_ConstructTransactionC1B8ue170006ERS4_m, symObjAddr: 0x5FB8, symBinAddr: 0x10000A440, symSize: 0x3C }
  - { offsetInCU: 0x183C4, offset: 0x183C4, size: 0x8, addend: 0x0, symName: __ZNSt3__116allocator_traitsINS_9allocatorI8SamEntryEEE9constructB8ue170006IS2_JRKS2_EvEEvRS3_PT_DpOT0_, symObjAddr: 0x5FF4, symBinAddr: 0x10000A47C, symSize: 0x34 }
  - { offsetInCU: 0x1841B, offset: 0x1841B, size: 0x8, addend: 0x0, symName: __ZNSt3__16vectorI8SamEntryNS_9allocatorIS1_EEE21_ConstructTransactionD1B8ue170006Ev, symObjAddr: 0x6028, symBinAddr: 0x10000A4B0, symSize: 0x2C }
  - { offsetInCU: 0x18445, offset: 0x18445, size: 0x8, addend: 0x0, symName: __ZNSt3__16vectorI8SamEntryNS_9allocatorIS1_EEE21_ConstructTransactionC2B8ue170006ERS4_m, symObjAddr: 0x6054, symBinAddr: 0x10000A4DC, symSize: 0x4C }
  - { offsetInCU: 0x1848D, offset: 0x1848D, size: 0x8, addend: 0x0, symName: __ZNSt3__19allocatorI8SamEntryE9constructB8ue170006IS1_JRKS1_EEEvPT_DpOT0_, symObjAddr: 0x60A0, symBinAddr: 0x10000A528, symSize: 0x30 }
  - { offsetInCU: 0x184E3, offset: 0x184E3, size: 0x8, addend: 0x0, symName: __ZN8SamEntryC1ERKS_, symObjAddr: 0x60D0, symBinAddr: 0x10000A558, symSize: 0x34 }
  - { offsetInCU: 0x18518, offset: 0x18518, size: 0x8, addend: 0x0, symName: __ZN8SamEntryC2ERKS_, symObjAddr: 0x6104, symBinAddr: 0x10000A58C, symSize: 0x90 }
  - { offsetInCU: 0x1854D, offset: 0x1854D, size: 0x8, addend: 0x0, symName: __ZNSt3__16vectorI8SamEntryNS_9allocatorIS1_EEE21_ConstructTransactionD2B8ue170006Ev, symObjAddr: 0x6194, symBinAddr: 0x10000A61C, symSize: 0x20 }
  - { offsetInCU: 0x18577, offset: 0x18577, size: 0x8, addend: 0x0, symName: __ZNKSt3__16vectorI8SamEntryNS_9allocatorIS1_EEE11__recommendB8ue170006Em, symObjAddr: 0x61B4, symBinAddr: 0x10000A63C, symSize: 0xB4 }
  - { offsetInCU: 0x185CC, offset: 0x185CC, size: 0x8, addend: 0x0, symName: __ZNSt3__114__split_bufferI8SamEntryRNS_9allocatorIS1_EEEC1EmmS4_, symObjAddr: 0x6268, symBinAddr: 0x10000A6F0, symSize: 0x44 }
  - { offsetInCU: 0x18622, offset: 0x18622, size: 0x8, addend: 0x0, symName: __ZNSt3__114__split_bufferI8SamEntryRNS_9allocatorIS1_EEED1Ev, symObjAddr: 0x63BC, symBinAddr: 0x10000A844, symSize: 0x2C }
  - { offsetInCU: 0x1864E, offset: 0x1864E, size: 0x8, addend: 0x0, symName: __ZNKSt3__16vectorI8SamEntryNS_9allocatorIS1_EEE8max_sizeEv, symObjAddr: 0x63E8, symBinAddr: 0x10000A870, symSize: 0x74 }
  - { offsetInCU: 0x18676, offset: 0x18676, size: 0x8, addend: 0x0, symName: __ZNKSt3__16vectorI8SamEntryNS_9allocatorIS1_EEE20__throw_length_errorB8ue170006Ev, symObjAddr: 0x645C, symBinAddr: 0x10000A8E4, symSize: 0x1C }
  - { offsetInCU: 0x186A6, offset: 0x186A6, size: 0x8, addend: 0x0, symName: __ZNSt3__116allocator_traitsINS_9allocatorI8SamEntryEEE8max_sizeB8ue170006IS3_vEEmRKS3_, symObjAddr: 0x64D0, symBinAddr: 0x10000A958, symSize: 0x24 }
  - { offsetInCU: 0x186D4, offset: 0x186D4, size: 0x8, addend: 0x0, symName: __ZNKSt3__16vectorI8SamEntryNS_9allocatorIS1_EEE7__allocB8ue170006Ev, symObjAddr: 0x64F4, symBinAddr: 0x10000A97C, symSize: 0x28 }
  - { offsetInCU: 0x18704, offset: 0x18704, size: 0x8, addend: 0x0, symName: __ZNKSt3__16__lessIvvEclB8ue170006ImmEEbRKT_RKT0_, symObjAddr: 0x6570, symBinAddr: 0x10000A9F8, symSize: 0x34 }
  - { offsetInCU: 0x18758, offset: 0x18758, size: 0x8, addend: 0x0, symName: __ZNKSt3__19allocatorI8SamEntryE8max_sizeB8ue170006Ev, symObjAddr: 0x65A4, symBinAddr: 0x10000AA2C, symSize: 0x20 }
  - { offsetInCU: 0x1877E, offset: 0x1877E, size: 0x8, addend: 0x0, symName: __ZNKSt3__117__compressed_pairIP8SamEntryNS_9allocatorIS1_EEE6secondB8ue170006Ev, symObjAddr: 0x65C4, symBinAddr: 0x10000AA4C, symSize: 0x24 }
  - { offsetInCU: 0x187A4, offset: 0x187A4, size: 0x8, addend: 0x0, symName: __ZNKSt3__122__compressed_pair_elemINS_9allocatorI8SamEntryEELi1ELb1EE5__getB8ue170006Ev, symObjAddr: 0x65E8, symBinAddr: 0x10000AA70, symSize: 0x14 }
  - { offsetInCU: 0x187CA, offset: 0x187CA, size: 0x8, addend: 0x0, symName: __ZNSt12length_errorC1B8ue170006EPKc, symObjAddr: 0x6660, symBinAddr: 0x10000AAE8, symSize: 0x34 }
  - { offsetInCU: 0x18802, offset: 0x18802, size: 0x8, addend: 0x0, symName: __ZNSt12length_errorC2B8ue170006EPKc, symObjAddr: 0x6694, symBinAddr: 0x10000AB1C, symSize: 0x4C }
  - { offsetInCU: 0x1883A, offset: 0x1883A, size: 0x8, addend: 0x0, symName: __ZNSt3__114__split_bufferI8SamEntryRNS_9allocatorIS1_EEEC2EmmS4_, symObjAddr: 0x6734, symBinAddr: 0x10000ABBC, symSize: 0xE0 }
  - { offsetInCU: 0x188AD, offset: 0x188AD, size: 0x8, addend: 0x0, symName: __ZNSt3__117__compressed_pairIP8SamEntryRNS_9allocatorIS1_EEEC1B8ue170006IDnS5_EEOT_OT0_, symObjAddr: 0x6814, symBinAddr: 0x10000AC9C, symSize: 0x3C }
  - { offsetInCU: 0x18905, offset: 0x18905, size: 0x8, addend: 0x0, symName: __ZNSt3__114__split_bufferI8SamEntryRNS_9allocatorIS1_EEE7__allocB8ue170006Ev, symObjAddr: 0x6890, symBinAddr: 0x10000AD18, symSize: 0x28 }
  - { offsetInCU: 0x1892B, offset: 0x1892B, size: 0x8, addend: 0x0, symName: __ZNSt3__114__split_bufferI8SamEntryRNS_9allocatorIS1_EEE9__end_capB8ue170006Ev, symObjAddr: 0x68B8, symBinAddr: 0x10000AD40, symSize: 0x28 }
  - { offsetInCU: 0x18951, offset: 0x18951, size: 0x8, addend: 0x0, symName: __ZNSt3__117__compressed_pairIP8SamEntryRNS_9allocatorIS1_EEEC2B8ue170006IDnS5_EEOT_OT0_, symObjAddr: 0x68E0, symBinAddr: 0x10000AD68, symSize: 0x48 }
  - { offsetInCU: 0x189A9, offset: 0x189A9, size: 0x8, addend: 0x0, symName: __ZNSt3__122__compressed_pair_elemIRNS_9allocatorI8SamEntryEELi1ELb0EEC2B8ue170006IS4_vEEOT_, symObjAddr: 0x6928, symBinAddr: 0x10000ADB0, symSize: 0x20 }
  - { offsetInCU: 0x189EB, offset: 0x189EB, size: 0x8, addend: 0x0, symName: __ZNSt3__19allocatorI8SamEntryE8allocateB8ue170006Em, symObjAddr: 0x6948, symBinAddr: 0x10000ADD0, symSize: 0x8C }
  - { offsetInCU: 0x18A1F, offset: 0x18A1F, size: 0x8, addend: 0x0, symName: __ZNSt3__117__compressed_pairIP8SamEntryRNS_9allocatorIS1_EEE6secondB8ue170006Ev, symObjAddr: 0x69D4, symBinAddr: 0x10000AE5C, symSize: 0x28 }
  - { offsetInCU: 0x18A45, offset: 0x18A45, size: 0x8, addend: 0x0, symName: __ZNSt3__122__compressed_pair_elemIRNS_9allocatorI8SamEntryEELi1ELb0EE5__getB8ue170006Ev, symObjAddr: 0x69FC, symBinAddr: 0x10000AE84, symSize: 0x18 }
  - { offsetInCU: 0x18A6B, offset: 0x18A6B, size: 0x8, addend: 0x0, symName: __ZNSt3__117__compressed_pairIP8SamEntryRNS_9allocatorIS1_EEE5firstB8ue170006Ev, symObjAddr: 0x6A14, symBinAddr: 0x10000AE9C, symSize: 0x24 }
  - { offsetInCU: 0x18A91, offset: 0x18A91, size: 0x8, addend: 0x0, symName: __ZNSt3__116reverse_iteratorIP8SamEntryEC1B8ue170006ES2_, symObjAddr: 0x6B6C, symBinAddr: 0x10000AFF4, symSize: 0x34 }
  - { offsetInCU: 0x18AC9, offset: 0x18AC9, size: 0x8, addend: 0x0, symName: __ZNKSt3__116reverse_iteratorIP8SamEntryE4baseB8ue170006Ev, symObjAddr: 0x6BA0, symBinAddr: 0x10000B028, symSize: 0x18 }
  - { offsetInCU: 0x18AEF, offset: 0x18AEF, size: 0x8, addend: 0x0, symName: __ZNKSt3__16vectorI8SamEntryNS_9allocatorIS1_EEE14__annotate_newB8ue170006Em, symObjAddr: 0x6BF4, symBinAddr: 0x10000B07C, symSize: 0xC8 }
  - { offsetInCU: 0x18B24, offset: 0x18B24, size: 0x8, addend: 0x0, symName: __ZNSt3__129_AllocatorDestroyRangeReverseINS_9allocatorI8SamEntryEENS_16reverse_iteratorIPS2_EEEC1B8ue170006ERS3_RS6_S9_, symObjAddr: 0x6D08, symBinAddr: 0x10000B190, symSize: 0x44 }
  - { offsetInCU: 0x18B7B, offset: 0x18B7B, size: 0x8, addend: 0x0, symName: __ZNKSt3__116reverse_iteratorIP8SamEntryEdeB8ue170006Ev, symObjAddr: 0x6DB8, symBinAddr: 0x10000B240, symSize: 0x28 }
  - { offsetInCU: 0x18BAF, offset: 0x18BAF, size: 0x8, addend: 0x0, symName: __ZNSt3__116reverse_iteratorIP8SamEntryEppB8ue170006Ev, symObjAddr: 0x6DE0, symBinAddr: 0x10000B268, symSize: 0x20 }
  - { offsetInCU: 0x18BD5, offset: 0x18BD5, size: 0x8, addend: 0x0, symName: __ZNSt3__128__exception_guard_exceptionsINS_29_AllocatorDestroyRangeReverseINS_9allocatorI8SamEntryEENS_16reverse_iteratorIPS3_EEEEE10__completeB8ue170006Ev, symObjAddr: 0x6E00, symBinAddr: 0x10000B288, symSize: 0x1C }
  - { offsetInCU: 0x18BFB, offset: 0x18BFB, size: 0x8, addend: 0x0, symName: __ZNSt3__128__exception_guard_exceptionsINS_29_AllocatorDestroyRangeReverseINS_9allocatorI8SamEntryEENS_16reverse_iteratorIPS3_EEEEED1B8ue170006Ev, symObjAddr: 0x6E1C, symBinAddr: 0x10000B2A4, symSize: 0x2C }
  - { offsetInCU: 0x18C25, offset: 0x18C25, size: 0x8, addend: 0x0, symName: __ZNSt3__128__exception_guard_exceptionsINS_29_AllocatorDestroyRangeReverseINS_9allocatorI8SamEntryEENS_16reverse_iteratorIPS3_EEEEEC1B8ue170006ES8_, symObjAddr: 0x6E48, symBinAddr: 0x10000B2D0, symSize: 0x34 }
  - { offsetInCU: 0x18C5E, offset: 0x18C5E, size: 0x8, addend: 0x0, symName: __ZNSt3__128__exception_guard_exceptionsINS_29_AllocatorDestroyRangeReverseINS_9allocatorI8SamEntryEENS_16reverse_iteratorIPS3_EEEEEC2B8ue170006ES8_, symObjAddr: 0x6E7C, symBinAddr: 0x10000B304, symSize: 0x30 }
  - { offsetInCU: 0x18C97, offset: 0x18C97, size: 0x8, addend: 0x0, symName: __ZNSt3__129_AllocatorDestroyRangeReverseINS_9allocatorI8SamEntryEENS_16reverse_iteratorIPS2_EEEC2B8ue170006ERS3_RS6_S9_, symObjAddr: 0x6EAC, symBinAddr: 0x10000B334, symSize: 0x38 }
  - { offsetInCU: 0x18CF3, offset: 0x18CF3, size: 0x8, addend: 0x0, symName: __ZNSt3__119__to_address_helperINS_16reverse_iteratorIP8SamEntryEEvE6__callB8ue170006ERKS4_, symObjAddr: 0x6EE4, symBinAddr: 0x10000B36C, symSize: 0x4C }
  - { offsetInCU: 0x18D16, offset: 0x18D16, size: 0x8, addend: 0x0, symName: __ZNKSt3__116reverse_iteratorIP8SamEntryEptB8ue170006Ev, symObjAddr: 0x6F30, symBinAddr: 0x10000B3B8, symSize: 0x24 }
  - { offsetInCU: 0x18D3C, offset: 0x18D3C, size: 0x8, addend: 0x0, symName: __ZNSt3__128__exception_guard_exceptionsINS_29_AllocatorDestroyRangeReverseINS_9allocatorI8SamEntryEENS_16reverse_iteratorIPS3_EEEEED2B8ue170006Ev, symObjAddr: 0x6F54, symBinAddr: 0x10000B3DC, symSize: 0x48 }
  - { offsetInCU: 0x18D66, offset: 0x18D66, size: 0x8, addend: 0x0, symName: __ZNKSt3__129_AllocatorDestroyRangeReverseINS_9allocatorI8SamEntryEENS_16reverse_iteratorIPS2_EEEclB8ue170006Ev, symObjAddr: 0x6F9C, symBinAddr: 0x10000B424, symSize: 0xB4 }
  - { offsetInCU: 0x18D8D, offset: 0x18D8D, size: 0x8, addend: 0x0, symName: __ZNSt3__116reverse_iteratorINS0_IP8SamEntryEEEC1B8ue170006ES3_, symObjAddr: 0x70C0, symBinAddr: 0x10000B548, symSize: 0x3C }
  - { offsetInCU: 0x18DC5, offset: 0x18DC5, size: 0x8, addend: 0x0, symName: __ZNSt3__116reverse_iteratorINS0_IP8SamEntryEEEppB8ue170006Ev, symObjAddr: 0x7180, symBinAddr: 0x10000B608, symSize: 0x30 }
  - { offsetInCU: 0x18DEB, offset: 0x18DEB, size: 0x8, addend: 0x0, symName: __ZNKSt3__116reverse_iteratorINS0_IP8SamEntryEEE4baseB8ue170006Ev, symObjAddr: 0x71B0, symBinAddr: 0x10000B638, symSize: 0x24 }
  - { offsetInCU: 0x18E16, offset: 0x18E16, size: 0x8, addend: 0x0, symName: __ZNSt3__119__to_address_helperINS_16reverse_iteratorINS1_IP8SamEntryEEEEvE6__callB8ue170006ERKS5_, symObjAddr: 0x71D4, symBinAddr: 0x10000B65C, symSize: 0x4C }
  - { offsetInCU: 0x18E39, offset: 0x18E39, size: 0x8, addend: 0x0, symName: __ZNKSt3__116reverse_iteratorINS0_IP8SamEntryEEEptB8ue170006Ev, symObjAddr: 0x7220, symBinAddr: 0x10000B6A8, symSize: 0x24 }
  - { offsetInCU: 0x18E5F, offset: 0x18E5F, size: 0x8, addend: 0x0, symName: __ZNKSt3__116reverse_iteratorINS0_IP8SamEntryEEEdeB8ue170006Ev, symObjAddr: 0x7244, symBinAddr: 0x10000B6CC, symSize: 0x34 }
  - { offsetInCU: 0x18E93, offset: 0x18E93, size: 0x8, addend: 0x0, symName: __ZNSt3__116reverse_iteratorIP8SamEntryEmmB8ue170006Ev, symObjAddr: 0x7278, symBinAddr: 0x10000B700, symSize: 0x20 }
  - { offsetInCU: 0x18EB9, offset: 0x18EB9, size: 0x8, addend: 0x0, symName: __ZNSt3__116reverse_iteratorINS0_IP8SamEntryEEEC2B8ue170006ES3_, symObjAddr: 0x7298, symBinAddr: 0x10000B720, symSize: 0x2C }
  - { offsetInCU: 0x18EF1, offset: 0x18EF1, size: 0x8, addend: 0x0, symName: __ZNSt3__116reverse_iteratorIP8SamEntryEC2B8ue170006ES2_, symObjAddr: 0x72C4, symBinAddr: 0x10000B74C, symSize: 0x28 }
  - { offsetInCU: 0x18F29, offset: 0x18F29, size: 0x8, addend: 0x0, symName: __ZNSt3__114__split_bufferI8SamEntryRNS_9allocatorIS1_EEED2Ev, symObjAddr: 0x72EC, symBinAddr: 0x10000B774, symSize: 0x80 }
  - { offsetInCU: 0x18F55, offset: 0x18F55, size: 0x8, addend: 0x0, symName: __ZNSt3__114__split_bufferI8SamEntryRNS_9allocatorIS1_EEE5clearB8ue170006Ev, symObjAddr: 0x736C, symBinAddr: 0x10000B7F4, symSize: 0x28 }
  - { offsetInCU: 0x18F7B, offset: 0x18F7B, size: 0x8, addend: 0x0, symName: __ZNKSt3__114__split_bufferI8SamEntryRNS_9allocatorIS1_EEE8capacityB8ue170006Ev, symObjAddr: 0x7394, symBinAddr: 0x10000B81C, symSize: 0x40 }
  - { offsetInCU: 0x18FA1, offset: 0x18FA1, size: 0x8, addend: 0x0, symName: __ZNSt3__114__split_bufferI8SamEntryRNS_9allocatorIS1_EEE17__destruct_at_endB8ue170006EPS1_, symObjAddr: 0x73D4, symBinAddr: 0x10000B85C, symSize: 0x2C }
  - { offsetInCU: 0x18FD5, offset: 0x18FD5, size: 0x8, addend: 0x0, symName: __ZNSt3__114__split_bufferI8SamEntryRNS_9allocatorIS1_EEE17__destruct_at_endB8ue170006EPS1_NS_17integral_constantIbLb0EEE, symObjAddr: 0x7400, symBinAddr: 0x10000B888, symSize: 0x94 }
  - { offsetInCU: 0x19015, offset: 0x19015, size: 0x8, addend: 0x0, symName: __ZNKSt3__114__split_bufferI8SamEntryRNS_9allocatorIS1_EEE9__end_capB8ue170006Ev, symObjAddr: 0x7494, symBinAddr: 0x10000B91C, symSize: 0x28 }
  - { offsetInCU: 0x1903B, offset: 0x1903B, size: 0x8, addend: 0x0, symName: __ZNKSt3__117__compressed_pairIP8SamEntryRNS_9allocatorIS1_EEE5firstB8ue170006Ev, symObjAddr: 0x74BC, symBinAddr: 0x10000B944, symSize: 0x24 }
  - { offsetInCU: 0x19061, offset: 0x19061, size: 0x8, addend: 0x0, symName: __ZNSt3__16vectorINS_4pairIciEENS_9allocatorIS2_EEEC2B8ue170006Ev, symObjAddr: 0x74E0, symBinAddr: 0x10000B968, symSize: 0x44 }
  - { offsetInCU: 0x1908B, offset: 0x1908B, size: 0x8, addend: 0x0, symName: __ZNSt3__117__compressed_pairIPNS_4pairIciEENS_9allocatorIS2_EEEC1B8ue170006IDnNS_18__default_init_tagEEEOT_OT0_, symObjAddr: 0x7524, symBinAddr: 0x10000B9AC, symSize: 0x3C }
  - { offsetInCU: 0x190E3, offset: 0x190E3, size: 0x8, addend: 0x0, symName: __ZNSt3__117__compressed_pairIPNS_4pairIciEENS_9allocatorIS2_EEEC2B8ue170006IDnNS_18__default_init_tagEEEOT_OT0_, symObjAddr: 0x7560, symBinAddr: 0x10000B9E8, symSize: 0x40 }
  - { offsetInCU: 0x1913B, offset: 0x1913B, size: 0x8, addend: 0x0, symName: __ZNSt3__122__compressed_pair_elemIPNS_4pairIciEELi0ELb0EEC2B8ue170006IDnvEEOT_, symObjAddr: 0x75A0, symBinAddr: 0x10000BA28, symSize: 0x1C }
  - { offsetInCU: 0x1917D, offset: 0x1917D, size: 0x8, addend: 0x0, symName: __ZNSt3__122__compressed_pair_elemINS_9allocatorINS_4pairIciEEEELi1ELb1EEC2B8ue170006ENS_18__default_init_tagE, symObjAddr: 0x75BC, symBinAddr: 0x10000BA44, symSize: 0x2C }
  - { offsetInCU: 0x191B1, offset: 0x191B1, size: 0x8, addend: 0x0, symName: __ZNSt3__19allocatorINS_4pairIciEEEC2B8ue170006Ev, symObjAddr: 0x75E8, symBinAddr: 0x10000BA70, symSize: 0x2C }
  - { offsetInCU: 0x191DB, offset: 0x191DB, size: 0x8, addend: 0x0, symName: __ZNSt3__116__non_trivial_ifILb1ENS_9allocatorINS_4pairIciEEEEEC2B8ue170006Ev, symObjAddr: 0x7614, symBinAddr: 0x10000BA9C, symSize: 0x14 }
  - { offsetInCU: 0x19205, offset: 0x19205, size: 0x8, addend: 0x0, symName: __ZNSt3__16vectorINS_4pairIciEENS_9allocatorIS2_EEED2B8ue170006Ev, symObjAddr: 0x7628, symBinAddr: 0x10000BAB0, symSize: 0x3C }
  - { offsetInCU: 0x1922F, offset: 0x1922F, size: 0x8, addend: 0x0, symName: __ZNSt3__16vectorINS_4pairIciEENS_9allocatorIS2_EEE16__destroy_vectorC1B8ue170006ERS5_, symObjAddr: 0x7664, symBinAddr: 0x10000BAEC, symSize: 0x34 }
  - { offsetInCU: 0x19268, offset: 0x19268, size: 0x8, addend: 0x0, symName: __ZNSt3__16vectorINS_4pairIciEENS_9allocatorIS2_EEE16__destroy_vectorclB8ue170006Ev, symObjAddr: 0x7698, symBinAddr: 0x10000BB20, symSize: 0x90 }
  - { offsetInCU: 0x1928E, offset: 0x1928E, size: 0x8, addend: 0x0, symName: __ZNSt3__16vectorINS_4pairIciEENS_9allocatorIS2_EEE16__destroy_vectorC2B8ue170006ERS5_, symObjAddr: 0x7728, symBinAddr: 0x10000BBB0, symSize: 0x20 }
  - { offsetInCU: 0x192C7, offset: 0x192C7, size: 0x8, addend: 0x0, symName: __ZNSt3__16vectorINS_4pairIciEENS_9allocatorIS2_EEE7__clearB8ue170006Ev, symObjAddr: 0x7748, symBinAddr: 0x10000BBD0, symSize: 0x28 }
  - { offsetInCU: 0x192ED, offset: 0x192ED, size: 0x8, addend: 0x0, symName: __ZNKSt3__16vectorINS_4pairIciEENS_9allocatorIS2_EEE17__annotate_deleteB8ue170006Ev, symObjAddr: 0x7770, symBinAddr: 0x10000BBF8, symSize: 0xB8 }
  - { offsetInCU: 0x19313, offset: 0x19313, size: 0x8, addend: 0x0, symName: __ZNSt3__116allocator_traitsINS_9allocatorINS_4pairIciEEEEE10deallocateB8ue170006ERS4_PS3_m, symObjAddr: 0x7828, symBinAddr: 0x10000BCB0, symSize: 0x34 }
  - { offsetInCU: 0x19355, offset: 0x19355, size: 0x8, addend: 0x0, symName: __ZNSt3__16vectorINS_4pairIciEENS_9allocatorIS2_EEE7__allocB8ue170006Ev, symObjAddr: 0x785C, symBinAddr: 0x10000BCE4, symSize: 0x28 }
  - { offsetInCU: 0x1937B, offset: 0x1937B, size: 0x8, addend: 0x0, symName: __ZNKSt3__16vectorINS_4pairIciEENS_9allocatorIS2_EEE8capacityB8ue170006Ev, symObjAddr: 0x7884, symBinAddr: 0x10000BD0C, symSize: 0x40 }
  - { offsetInCU: 0x193A1, offset: 0x193A1, size: 0x8, addend: 0x0, symName: __ZNSt3__16vectorINS_4pairIciEENS_9allocatorIS2_EEE22__base_destruct_at_endB8ue170006EPS2_, symObjAddr: 0x78C4, symBinAddr: 0x10000BD4C, symSize: 0xA0 }
  - { offsetInCU: 0x193E5, offset: 0x193E5, size: 0x8, addend: 0x0, symName: __ZNSt3__116allocator_traitsINS_9allocatorINS_4pairIciEEEEE7destroyB8ue170006IS3_vEEvRS4_PT_, symObjAddr: 0x7964, symBinAddr: 0x10000BDEC, symSize: 0x2C }
  - { offsetInCU: 0x19422, offset: 0x19422, size: 0x8, addend: 0x0, symName: __ZNSt3__19allocatorINS_4pairIciEEE7destroyB8ue170006EPS2_, symObjAddr: 0x79A4, symBinAddr: 0x10000BE2C, symSize: 0x14 }
  - { offsetInCU: 0x19456, offset: 0x19456, size: 0x8, addend: 0x0, symName: __ZNKSt3__16vectorINS_4pairIciEENS_9allocatorIS2_EEE31__annotate_contiguous_containerB8ue170006EPKvS7_S7_S7_, symObjAddr: 0x79B8, symBinAddr: 0x10000BE40, symSize: 0x20 }
  - { offsetInCU: 0x194A8, offset: 0x194A8, size: 0x8, addend: 0x0, symName: __ZNKSt3__16vectorINS_4pairIciEENS_9allocatorIS2_EEE4dataB8ue170006Ev, symObjAddr: 0x79D8, symBinAddr: 0x10000BE60, symSize: 0x28 }
  - { offsetInCU: 0x194CE, offset: 0x194CE, size: 0x8, addend: 0x0, symName: __ZNKSt3__16vectorINS_4pairIciEENS_9allocatorIS2_EEE4sizeB8ue170006Ev, symObjAddr: 0x7A00, symBinAddr: 0x10000BE88, symSize: 0x28 }
  - { offsetInCU: 0x194F4, offset: 0x194F4, size: 0x8, addend: 0x0, symName: __ZNSt3__19allocatorINS_4pairIciEEE10deallocateB8ue170006EPS2_m, symObjAddr: 0x7A28, symBinAddr: 0x10000BEB0, symSize: 0x70 }
  - { offsetInCU: 0x19536, offset: 0x19536, size: 0x8, addend: 0x0, symName: __ZNSt3__117__compressed_pairIPNS_4pairIciEENS_9allocatorIS2_EEE6secondB8ue170006Ev, symObjAddr: 0x7A98, symBinAddr: 0x10000BF20, symSize: 0x24 }
  - { offsetInCU: 0x1955C, offset: 0x1955C, size: 0x8, addend: 0x0, symName: __ZNSt3__122__compressed_pair_elemINS_9allocatorINS_4pairIciEEEELi1ELb1EE5__getB8ue170006Ev, symObjAddr: 0x7ABC, symBinAddr: 0x10000BF44, symSize: 0x14 }
  - { offsetInCU: 0x19582, offset: 0x19582, size: 0x8, addend: 0x0, symName: __ZNKSt3__16vectorINS_4pairIciEENS_9allocatorIS2_EEE9__end_capB8ue170006Ev, symObjAddr: 0x7AD0, symBinAddr: 0x10000BF58, symSize: 0x28 }
  - { offsetInCU: 0x195A8, offset: 0x195A8, size: 0x8, addend: 0x0, symName: __ZNKSt3__117__compressed_pairIPNS_4pairIciEENS_9allocatorIS2_EEE5firstB8ue170006Ev, symObjAddr: 0x7AF8, symBinAddr: 0x10000BF80, symSize: 0x24 }
  - { offsetInCU: 0x195CE, offset: 0x195CE, size: 0x8, addend: 0x0, symName: __ZNKSt3__122__compressed_pair_elemIPNS_4pairIciEELi0ELb0EE5__getB8ue170006Ev, symObjAddr: 0x7B1C, symBinAddr: 0x10000BFA4, symSize: 0x14 }
  - { offsetInCU: 0x195F4, offset: 0x195F4, size: 0x8, addend: 0x0, symName: __ZNSt3__14pairIciEC1B8ue170006ERKcRKi, symObjAddr: 0x7B30, symBinAddr: 0x10000BFB8, symSize: 0x3C }
  - { offsetInCU: 0x1963A, offset: 0x1963A, size: 0x8, addend: 0x0, symName: __ZNSt3__14pairIciEC2B8ue170006ERKcRKi, symObjAddr: 0x7B6C, symBinAddr: 0x10000BFF4, symSize: 0x34 }
  - { offsetInCU: 0x19680, offset: 0x19680, size: 0x8, addend: 0x0, symName: __ZNSt3__16vectorINS_4pairIciEENS_9allocatorIS2_EEE9__end_capB8ue170006Ev, symObjAddr: 0x7BA0, symBinAddr: 0x10000C028, symSize: 0x28 }
  - { offsetInCU: 0x196A6, offset: 0x196A6, size: 0x8, addend: 0x0, symName: __ZNSt3__16vectorINS_4pairIciEENS_9allocatorIS2_EEE22__construct_one_at_endB8ue170006IJS2_EEEvDpOT_, symObjAddr: 0x7BC8, symBinAddr: 0x10000C050, symSize: 0x98 }
  - { offsetInCU: 0x196F5, offset: 0x196F5, size: 0x8, addend: 0x0, symName: __ZNSt3__16vectorINS_4pairIciEENS_9allocatorIS2_EEE21__push_back_slow_pathIS2_EEvOT_, symObjAddr: 0x7C60, symBinAddr: 0x10000C0E8, symSize: 0xE0 }
  - { offsetInCU: 0x19753, offset: 0x19753, size: 0x8, addend: 0x0, symName: __ZNSt3__117__compressed_pairIPNS_4pairIciEENS_9allocatorIS2_EEE5firstB8ue170006Ev, symObjAddr: 0x7D40, symBinAddr: 0x10000C1C8, symSize: 0x24 }
  - { offsetInCU: 0x19779, offset: 0x19779, size: 0x8, addend: 0x0, symName: __ZNSt3__122__compressed_pair_elemIPNS_4pairIciEELi0ELb0EE5__getB8ue170006Ev, symObjAddr: 0x7D64, symBinAddr: 0x10000C1EC, symSize: 0x14 }
  - { offsetInCU: 0x197B8, offset: 0x197B8, size: 0x8, addend: 0x0, symName: __ZNSt3__16vectorINS_4pairIciEENS_9allocatorIS2_EEE21_ConstructTransactionC1B8ue170006ERS5_m, symObjAddr: 0x7D78, symBinAddr: 0x10000C200, symSize: 0x3C }
  - { offsetInCU: 0x19800, offset: 0x19800, size: 0x8, addend: 0x0, symName: __ZNSt3__116allocator_traitsINS_9allocatorINS_4pairIciEEEEE9constructB8ue170006IS3_JS3_EvEEvRS4_PT_DpOT0_, symObjAddr: 0x7DB4, symBinAddr: 0x10000C23C, symSize: 0x34 }
  - { offsetInCU: 0x19857, offset: 0x19857, size: 0x8, addend: 0x0, symName: __ZNSt3__16vectorINS_4pairIciEENS_9allocatorIS2_EEE21_ConstructTransactionD1B8ue170006Ev, symObjAddr: 0x7DE8, symBinAddr: 0x10000C270, symSize: 0x2C }
  - { offsetInCU: 0x19881, offset: 0x19881, size: 0x8, addend: 0x0, symName: __ZNSt3__16vectorINS_4pairIciEENS_9allocatorIS2_EEE21_ConstructTransactionC2B8ue170006ERS5_m, symObjAddr: 0x7E14, symBinAddr: 0x10000C29C, symSize: 0x44 }
  - { offsetInCU: 0x198C9, offset: 0x198C9, size: 0x8, addend: 0x0, symName: __ZNSt3__19allocatorINS_4pairIciEEE9constructB8ue170006IS2_JS2_EEEvPT_DpOT0_, symObjAddr: 0x7E58, symBinAddr: 0x10000C2E0, symSize: 0x28 }
  - { offsetInCU: 0x1991F, offset: 0x1991F, size: 0x8, addend: 0x0, symName: __ZNSt3__16vectorINS_4pairIciEENS_9allocatorIS2_EEE21_ConstructTransactionD2B8ue170006Ev, symObjAddr: 0x7E80, symBinAddr: 0x10000C308, symSize: 0x20 }
  - { offsetInCU: 0x19949, offset: 0x19949, size: 0x8, addend: 0x0, symName: __ZNKSt3__16vectorINS_4pairIciEENS_9allocatorIS2_EEE11__recommendB8ue170006Em, symObjAddr: 0x7EA0, symBinAddr: 0x10000C328, symSize: 0xB4 }
  - { offsetInCU: 0x1999E, offset: 0x1999E, size: 0x8, addend: 0x0, symName: __ZNSt3__114__split_bufferINS_4pairIciEERNS_9allocatorIS2_EEEC1EmmS5_, symObjAddr: 0x7F54, symBinAddr: 0x10000C3DC, symSize: 0x44 }
  - { offsetInCU: 0x199F4, offset: 0x199F4, size: 0x8, addend: 0x0, symName: __ZNSt3__114__split_bufferINS_4pairIciEERNS_9allocatorIS2_EEED1Ev, symObjAddr: 0x80A8, symBinAddr: 0x10000C530, symSize: 0x2C }
  - { offsetInCU: 0x19A20, offset: 0x19A20, size: 0x8, addend: 0x0, symName: __ZNKSt3__16vectorINS_4pairIciEENS_9allocatorIS2_EEE8max_sizeEv, symObjAddr: 0x80D4, symBinAddr: 0x10000C55C, symSize: 0x74 }
  - { offsetInCU: 0x19A48, offset: 0x19A48, size: 0x8, addend: 0x0, symName: __ZNKSt3__16vectorINS_4pairIciEENS_9allocatorIS2_EEE20__throw_length_errorB8ue170006Ev, symObjAddr: 0x8148, symBinAddr: 0x10000C5D0, symSize: 0x1C }
  - { offsetInCU: 0x19A78, offset: 0x19A78, size: 0x8, addend: 0x0, symName: __ZNSt3__116allocator_traitsINS_9allocatorINS_4pairIciEEEEE8max_sizeB8ue170006IS4_vEEmRKS4_, symObjAddr: 0x8164, symBinAddr: 0x10000C5EC, symSize: 0x24 }
  - { offsetInCU: 0x19AA6, offset: 0x19AA6, size: 0x8, addend: 0x0, symName: __ZNKSt3__16vectorINS_4pairIciEENS_9allocatorIS2_EEE7__allocB8ue170006Ev, symObjAddr: 0x8188, symBinAddr: 0x10000C610, symSize: 0x28 }
  - { offsetInCU: 0x19ACC, offset: 0x19ACC, size: 0x8, addend: 0x0, symName: __ZNKSt3__19allocatorINS_4pairIciEEE8max_sizeB8ue170006Ev, symObjAddr: 0x81B0, symBinAddr: 0x10000C638, symSize: 0x14 }
  - { offsetInCU: 0x19AF2, offset: 0x19AF2, size: 0x8, addend: 0x0, symName: __ZNKSt3__117__compressed_pairIPNS_4pairIciEENS_9allocatorIS2_EEE6secondB8ue170006Ev, symObjAddr: 0x81C4, symBinAddr: 0x10000C64C, symSize: 0x24 }
  - { offsetInCU: 0x19B18, offset: 0x19B18, size: 0x8, addend: 0x0, symName: __ZNKSt3__122__compressed_pair_elemINS_9allocatorINS_4pairIciEEEELi1ELb1EE5__getB8ue170006Ev, symObjAddr: 0x81E8, symBinAddr: 0x10000C670, symSize: 0x14 }
  - { offsetInCU: 0x19B3E, offset: 0x19B3E, size: 0x8, addend: 0x0, symName: __ZNSt3__114__split_bufferINS_4pairIciEERNS_9allocatorIS2_EEEC2EmmS5_, symObjAddr: 0x81FC, symBinAddr: 0x10000C684, symSize: 0xD4 }
  - { offsetInCU: 0x19BB1, offset: 0x19BB1, size: 0x8, addend: 0x0, symName: __ZNSt3__117__compressed_pairIPNS_4pairIciEERNS_9allocatorIS2_EEEC1B8ue170006IDnS6_EEOT_OT0_, symObjAddr: 0x82D0, symBinAddr: 0x10000C758, symSize: 0x3C }
  - { offsetInCU: 0x19C09, offset: 0x19C09, size: 0x8, addend: 0x0, symName: __ZNSt3__114__split_bufferINS_4pairIciEERNS_9allocatorIS2_EEE7__allocB8ue170006Ev, symObjAddr: 0x834C, symBinAddr: 0x10000C7D4, symSize: 0x28 }
  - { offsetInCU: 0x19C2F, offset: 0x19C2F, size: 0x8, addend: 0x0, symName: __ZNSt3__114__split_bufferINS_4pairIciEERNS_9allocatorIS2_EEE9__end_capB8ue170006Ev, symObjAddr: 0x8374, symBinAddr: 0x10000C7FC, symSize: 0x28 }
  - { offsetInCU: 0x19C55, offset: 0x19C55, size: 0x8, addend: 0x0, symName: __ZNSt3__117__compressed_pairIPNS_4pairIciEERNS_9allocatorIS2_EEEC2B8ue170006IDnS6_EEOT_OT0_, symObjAddr: 0x839C, symBinAddr: 0x10000C824, symSize: 0x48 }
  - { offsetInCU: 0x19CAD, offset: 0x19CAD, size: 0x8, addend: 0x0, symName: __ZNSt3__122__compressed_pair_elemIRNS_9allocatorINS_4pairIciEEEELi1ELb0EEC2B8ue170006IS5_vEEOT_, symObjAddr: 0x83E4, symBinAddr: 0x10000C86C, symSize: 0x20 }
  - { offsetInCU: 0x19CEF, offset: 0x19CEF, size: 0x8, addend: 0x0, symName: __ZNSt3__19allocatorINS_4pairIciEEE8allocateB8ue170006Em, symObjAddr: 0x8404, symBinAddr: 0x10000C88C, symSize: 0x84 }
  - { offsetInCU: 0x19D23, offset: 0x19D23, size: 0x8, addend: 0x0, symName: __ZNSt3__117__compressed_pairIPNS_4pairIciEERNS_9allocatorIS2_EEE6secondB8ue170006Ev, symObjAddr: 0x8488, symBinAddr: 0x10000C910, symSize: 0x28 }
  - { offsetInCU: 0x19D49, offset: 0x19D49, size: 0x8, addend: 0x0, symName: __ZNSt3__122__compressed_pair_elemIRNS_9allocatorINS_4pairIciEEEELi1ELb0EE5__getB8ue170006Ev, symObjAddr: 0x84B0, symBinAddr: 0x10000C938, symSize: 0x18 }
  - { offsetInCU: 0x19D6F, offset: 0x19D6F, size: 0x8, addend: 0x0, symName: __ZNSt3__117__compressed_pairIPNS_4pairIciEERNS_9allocatorIS2_EEE5firstB8ue170006Ev, symObjAddr: 0x84C8, symBinAddr: 0x10000C950, symSize: 0x24 }
  - { offsetInCU: 0x19D95, offset: 0x19D95, size: 0x8, addend: 0x0, symName: __ZNSt3__116reverse_iteratorIPNS_4pairIciEEEC1B8ue170006ES3_, symObjAddr: 0x8620, symBinAddr: 0x10000CAA8, symSize: 0x34 }
  - { offsetInCU: 0x19DCD, offset: 0x19DCD, size: 0x8, addend: 0x0, symName: __ZNKSt3__116reverse_iteratorIPNS_4pairIciEEE4baseB8ue170006Ev, symObjAddr: 0x8654, symBinAddr: 0x10000CADC, symSize: 0x18 }
  - { offsetInCU: 0x19DF3, offset: 0x19DF3, size: 0x8, addend: 0x0, symName: __ZNKSt3__16vectorINS_4pairIciEENS_9allocatorIS2_EEE14__annotate_newB8ue170006Em, symObjAddr: 0x86A8, symBinAddr: 0x10000CB30, symSize: 0xAC }
  - { offsetInCU: 0x19E28, offset: 0x19E28, size: 0x8, addend: 0x0, symName: __ZNSt3__129_AllocatorDestroyRangeReverseINS_9allocatorINS_4pairIciEEEENS_16reverse_iteratorIPS3_EEEC1B8ue170006ERS4_RS7_SA_, symObjAddr: 0x87A0, symBinAddr: 0x10000CC28, symSize: 0x44 }
  - { offsetInCU: 0x19E7F, offset: 0x19E7F, size: 0x8, addend: 0x0, symName: __ZNKSt3__116reverse_iteratorIPNS_4pairIciEEEdeB8ue170006Ev, symObjAddr: 0x8850, symBinAddr: 0x10000CCD8, symSize: 0x28 }
  - { offsetInCU: 0x19EB3, offset: 0x19EB3, size: 0x8, addend: 0x0, symName: __ZNSt3__116reverse_iteratorIPNS_4pairIciEEEppB8ue170006Ev, symObjAddr: 0x8878, symBinAddr: 0x10000CD00, symSize: 0x20 }
  - { offsetInCU: 0x19ED9, offset: 0x19ED9, size: 0x8, addend: 0x0, symName: __ZNSt3__128__exception_guard_exceptionsINS_29_AllocatorDestroyRangeReverseINS_9allocatorINS_4pairIciEEEENS_16reverse_iteratorIPS4_EEEEE10__completeB8ue170006Ev, symObjAddr: 0x8898, symBinAddr: 0x10000CD20, symSize: 0x1C }
  - { offsetInCU: 0x19EFF, offset: 0x19EFF, size: 0x8, addend: 0x0, symName: __ZNSt3__128__exception_guard_exceptionsINS_29_AllocatorDestroyRangeReverseINS_9allocatorINS_4pairIciEEEENS_16reverse_iteratorIPS4_EEEEED1B8ue170006Ev, symObjAddr: 0x88B4, symBinAddr: 0x10000CD3C, symSize: 0x2C }
  - { offsetInCU: 0x19F29, offset: 0x19F29, size: 0x8, addend: 0x0, symName: __ZNSt3__128__exception_guard_exceptionsINS_29_AllocatorDestroyRangeReverseINS_9allocatorINS_4pairIciEEEENS_16reverse_iteratorIPS4_EEEEEC1B8ue170006ES9_, symObjAddr: 0x88E0, symBinAddr: 0x10000CD68, symSize: 0x34 }
  - { offsetInCU: 0x19F62, offset: 0x19F62, size: 0x8, addend: 0x0, symName: __ZNSt3__128__exception_guard_exceptionsINS_29_AllocatorDestroyRangeReverseINS_9allocatorINS_4pairIciEEEENS_16reverse_iteratorIPS4_EEEEEC2B8ue170006ES9_, symObjAddr: 0x8914, symBinAddr: 0x10000CD9C, symSize: 0x30 }
  - { offsetInCU: 0x19F9B, offset: 0x19F9B, size: 0x8, addend: 0x0, symName: __ZNSt3__129_AllocatorDestroyRangeReverseINS_9allocatorINS_4pairIciEEEENS_16reverse_iteratorIPS3_EEEC2B8ue170006ERS4_RS7_SA_, symObjAddr: 0x8944, symBinAddr: 0x10000CDCC, symSize: 0x38 }
  - { offsetInCU: 0x19FF7, offset: 0x19FF7, size: 0x8, addend: 0x0, symName: __ZNSt3__119__to_address_helperINS_16reverse_iteratorIPNS_4pairIciEEEEvE6__callB8ue170006ERKS5_, symObjAddr: 0x897C, symBinAddr: 0x10000CE04, symSize: 0x4C }
  - { offsetInCU: 0x1A01A, offset: 0x1A01A, size: 0x8, addend: 0x0, symName: __ZNKSt3__116reverse_iteratorIPNS_4pairIciEEEptB8ue170006Ev, symObjAddr: 0x89C8, symBinAddr: 0x10000CE50, symSize: 0x24 }
  - { offsetInCU: 0x1A040, offset: 0x1A040, size: 0x8, addend: 0x0, symName: __ZNSt3__128__exception_guard_exceptionsINS_29_AllocatorDestroyRangeReverseINS_9allocatorINS_4pairIciEEEENS_16reverse_iteratorIPS4_EEEEED2B8ue170006Ev, symObjAddr: 0x89EC, symBinAddr: 0x10000CE74, symSize: 0x48 }
  - { offsetInCU: 0x1A06A, offset: 0x1A06A, size: 0x8, addend: 0x0, symName: __ZNKSt3__129_AllocatorDestroyRangeReverseINS_9allocatorINS_4pairIciEEEENS_16reverse_iteratorIPS3_EEEclB8ue170006Ev, symObjAddr: 0x8A34, symBinAddr: 0x10000CEBC, symSize: 0xB4 }
  - { offsetInCU: 0x1A091, offset: 0x1A091, size: 0x8, addend: 0x0, symName: __ZNSt3__116reverse_iteratorINS0_IPNS_4pairIciEEEEEC1B8ue170006ES4_, symObjAddr: 0x8B58, symBinAddr: 0x10000CFE0, symSize: 0x3C }
  - { offsetInCU: 0x1A0C9, offset: 0x1A0C9, size: 0x8, addend: 0x0, symName: __ZNSt3__116reverse_iteratorINS0_IPNS_4pairIciEEEEEppB8ue170006Ev, symObjAddr: 0x8C18, symBinAddr: 0x10000D0A0, symSize: 0x30 }
  - { offsetInCU: 0x1A0EF, offset: 0x1A0EF, size: 0x8, addend: 0x0, symName: __ZNKSt3__116reverse_iteratorINS0_IPNS_4pairIciEEEEE4baseB8ue170006Ev, symObjAddr: 0x8C48, symBinAddr: 0x10000D0D0, symSize: 0x24 }
  - { offsetInCU: 0x1A11A, offset: 0x1A11A, size: 0x8, addend: 0x0, symName: __ZNSt3__119__to_address_helperINS_16reverse_iteratorINS1_IPNS_4pairIciEEEEEEvE6__callB8ue170006ERKS6_, symObjAddr: 0x8C6C, symBinAddr: 0x10000D0F4, symSize: 0x4C }
  - { offsetInCU: 0x1A13D, offset: 0x1A13D, size: 0x8, addend: 0x0, symName: __ZNKSt3__116reverse_iteratorINS0_IPNS_4pairIciEEEEEptB8ue170006Ev, symObjAddr: 0x8CB8, symBinAddr: 0x10000D140, symSize: 0x24 }
  - { offsetInCU: 0x1A163, offset: 0x1A163, size: 0x8, addend: 0x0, symName: __ZNKSt3__116reverse_iteratorINS0_IPNS_4pairIciEEEEEdeB8ue170006Ev, symObjAddr: 0x8CDC, symBinAddr: 0x10000D164, symSize: 0x34 }
  - { offsetInCU: 0x1A197, offset: 0x1A197, size: 0x8, addend: 0x0, symName: __ZNSt3__116reverse_iteratorIPNS_4pairIciEEEmmB8ue170006Ev, symObjAddr: 0x8D10, symBinAddr: 0x10000D198, symSize: 0x20 }
  - { offsetInCU: 0x1A1BD, offset: 0x1A1BD, size: 0x8, addend: 0x0, symName: __ZNSt3__116reverse_iteratorINS0_IPNS_4pairIciEEEEEC2B8ue170006ES4_, symObjAddr: 0x8D30, symBinAddr: 0x10000D1B8, symSize: 0x2C }
  - { offsetInCU: 0x1A1F5, offset: 0x1A1F5, size: 0x8, addend: 0x0, symName: __ZNSt3__116reverse_iteratorIPNS_4pairIciEEEC2B8ue170006ES3_, symObjAddr: 0x8D5C, symBinAddr: 0x10000D1E4, symSize: 0x28 }
  - { offsetInCU: 0x1A22D, offset: 0x1A22D, size: 0x8, addend: 0x0, symName: __ZNSt3__114__split_bufferINS_4pairIciEERNS_9allocatorIS2_EEED2Ev, symObjAddr: 0x8D84, symBinAddr: 0x10000D20C, symSize: 0x80 }
  - { offsetInCU: 0x1A259, offset: 0x1A259, size: 0x8, addend: 0x0, symName: __ZNSt3__114__split_bufferINS_4pairIciEERNS_9allocatorIS2_EEE5clearB8ue170006Ev, symObjAddr: 0x8E04, symBinAddr: 0x10000D28C, symSize: 0x28 }
  - { offsetInCU: 0x1A27F, offset: 0x1A27F, size: 0x8, addend: 0x0, symName: __ZNKSt3__114__split_bufferINS_4pairIciEERNS_9allocatorIS2_EEE8capacityB8ue170006Ev, symObjAddr: 0x8E2C, symBinAddr: 0x10000D2B4, symSize: 0x40 }
  - { offsetInCU: 0x1A2A5, offset: 0x1A2A5, size: 0x8, addend: 0x0, symName: __ZNSt3__114__split_bufferINS_4pairIciEERNS_9allocatorIS2_EEE17__destruct_at_endB8ue170006EPS2_, symObjAddr: 0x8E6C, symBinAddr: 0x10000D2F4, symSize: 0x2C }
  - { offsetInCU: 0x1A2D9, offset: 0x1A2D9, size: 0x8, addend: 0x0, symName: __ZNSt3__114__split_bufferINS_4pairIciEERNS_9allocatorIS2_EEE17__destruct_at_endB8ue170006EPS2_NS_17integral_constantIbLb0EEE, symObjAddr: 0x8E98, symBinAddr: 0x10000D320, symSize: 0x94 }
  - { offsetInCU: 0x1A319, offset: 0x1A319, size: 0x8, addend: 0x0, symName: __ZNKSt3__114__split_bufferINS_4pairIciEERNS_9allocatorIS2_EEE9__end_capB8ue170006Ev, symObjAddr: 0x8F2C, symBinAddr: 0x10000D3B4, symSize: 0x28 }
  - { offsetInCU: 0x1A33F, offset: 0x1A33F, size: 0x8, addend: 0x0, symName: __ZNKSt3__117__compressed_pairIPNS_4pairIciEERNS_9allocatorIS2_EEE5firstB8ue170006Ev, symObjAddr: 0x8F54, symBinAddr: 0x10000D3DC, symSize: 0x24 }
  - { offsetInCU: 0x1A365, offset: 0x1A365, size: 0x8, addend: 0x0, symName: __ZNKSt3__112basic_stringIcNS_11char_traitsIcEENS_9allocatorIcEEE15__get_long_sizeB8ue170006Ev, symObjAddr: 0x8F78, symBinAddr: 0x10000D400, symSize: 0x28 }
  - { offsetInCU: 0x1A38B, offset: 0x1A38B, size: 0x8, addend: 0x0, symName: __ZNKSt3__112basic_stringIcNS_11char_traitsIcEENS_9allocatorIcEEE16__get_short_sizeB8ue170006Ev, symObjAddr: 0x8FA0, symBinAddr: 0x10000D428, symSize: 0x34 }
  - { offsetInCU: 0x1A3B1, offset: 0x1A3B1, size: 0x8, addend: 0x0, symName: __ZNSt3__16__treeINS_12__value_typeIi16MutationProposalEENS_19__map_value_compareIiS3_NS_4lessIiEELb1EEENS_9allocatorIS3_EEE12__find_equalIiEERPNS_16__tree_node_baseIPvEERPNS_15__tree_end_nodeISF_EERKT_, symObjAddr: 0x8FD4, symBinAddr: 0x10000D45C, symSize: 0x184 }
  - { offsetInCU: 0x1A41E, offset: 0x1A41E, size: 0x8, addend: 0x0, symName: __ZNSt3__13mapIi16MutationProposalNS_4lessIiEENS_9allocatorINS_4pairIKiS1_EEEEE25__construct_node_with_keyERS6_, symObjAddr: 0x9158, symBinAddr: 0x10000D5E0, symSize: 0x154 }
  - { offsetInCU: 0x1A474, offset: 0x1A474, size: 0x8, addend: 0x0, symName: __ZNSt3__16__treeINS_12__value_typeIi16MutationProposalEENS_19__map_value_compareIiS3_NS_4lessIiEELb1EEENS_9allocatorIS3_EEE16__insert_node_atEPNS_15__tree_end_nodeIPNS_16__tree_node_baseIPvEEEERSF_SF_, symObjAddr: 0x92AC, symBinAddr: 0x10000D734, symSize: 0xCC }
  - { offsetInCU: 0x1A4C9, offset: 0x1A4C9, size: 0x8, addend: 0x0, symName: __ZNKSt3__110unique_ptrINS_11__tree_nodeINS_12__value_typeIi16MutationProposalEEPvEENS_21__map_node_destructorINS_9allocatorIS6_EEEEE3getB8ue170006Ev, symObjAddr: 0x9378, symBinAddr: 0x10000D800, symSize: 0x28 }
  - { offsetInCU: 0x1A4EF, offset: 0x1A4EF, size: 0x8, addend: 0x0, symName: __ZNSt3__110unique_ptrINS_11__tree_nodeINS_12__value_typeIi16MutationProposalEEPvEENS_21__map_node_destructorINS_9allocatorIS6_EEEEE7releaseB8ue170006Ev, symObjAddr: 0x93A0, symBinAddr: 0x10000D828, symSize: 0x44 }
  - { offsetInCU: 0x1A524, offset: 0x1A524, size: 0x8, addend: 0x0, symName: __ZNSt3__110unique_ptrINS_11__tree_nodeINS_12__value_typeIi16MutationProposalEEPvEENS_21__map_node_destructorINS_9allocatorIS6_EEEEED1B8ue170006Ev, symObjAddr: 0x93E4, symBinAddr: 0x10000D86C, symSize: 0x2C }
  - { offsetInCU: 0x1A54E, offset: 0x1A54E, size: 0x8, addend: 0x0, symName: __ZNSt3__112__value_typeIi16MutationProposalE11__get_valueB8ue170006Ev, symObjAddr: 0x9410, symBinAddr: 0x10000D898, symSize: 0x14 }
  - { offsetInCU: 0x1A574, offset: 0x1A574, size: 0x8, addend: 0x0, symName: __ZNKSt3__16__treeINS_12__value_typeIi16MutationProposalEENS_19__map_value_compareIiS3_NS_4lessIiEELb1EEENS_9allocatorIS3_EEE6__rootB8ue170006Ev, symObjAddr: 0x9424, symBinAddr: 0x10000D8AC, symSize: 0x28 }
  - { offsetInCU: 0x1A59A, offset: 0x1A59A, size: 0x8, addend: 0x0, symName: __ZNKSt3__16__treeINS_12__value_typeIi16MutationProposalEENS_19__map_value_compareIiS3_NS_4lessIiEELb1EEENS_9allocatorIS3_EEE10__root_ptrB8ue170006Ev, symObjAddr: 0x944C, symBinAddr: 0x10000D8D4, symSize: 0x24 }
  - { offsetInCU: 0x1A5C0, offset: 0x1A5C0, size: 0x8, addend: 0x0, symName: __ZNSt3__16__treeINS_12__value_typeIi16MutationProposalEENS_19__map_value_compareIiS3_NS_4lessIiEELb1EEENS_9allocatorIS3_EEE10value_compB8ue170006Ev, symObjAddr: 0x9470, symBinAddr: 0x10000D8F8, symSize: 0x28 }
  - { offsetInCU: 0x1A5E6, offset: 0x1A5E6, size: 0x8, addend: 0x0, symName: __ZNKSt3__119__map_value_compareIiNS_12__value_typeIi16MutationProposalEENS_4lessIiEELb1EEclB8ue170006ERKiRKS3_, symObjAddr: 0x9498, symBinAddr: 0x10000D920, symSize: 0x50 }
  - { offsetInCU: 0x1A62A, offset: 0x1A62A, size: 0x8, addend: 0x0, symName: __ZNKSt3__119__map_value_compareIiNS_12__value_typeIi16MutationProposalEENS_4lessIiEELb1EEclB8ue170006ERKS3_RKi, symObjAddr: 0x94E8, symBinAddr: 0x10000D970, symSize: 0x48 }
  - { offsetInCU: 0x1A66E, offset: 0x1A66E, size: 0x8, addend: 0x0, symName: __ZNSt3__16__treeINS_12__value_typeIi16MutationProposalEENS_19__map_value_compareIiS3_NS_4lessIiEELb1EEENS_9allocatorIS3_EEE10__end_nodeB8ue170006Ev, symObjAddr: 0x9530, symBinAddr: 0x10000D9B8, symSize: 0x2C }
  - { offsetInCU: 0x1A694, offset: 0x1A694, size: 0x8, addend: 0x0, symName: __ZNKSt3__16__treeINS_12__value_typeIi16MutationProposalEENS_19__map_value_compareIiS3_NS_4lessIiEELb1EEENS_9allocatorIS3_EEE10__end_nodeB8ue170006Ev, symObjAddr: 0x955C, symBinAddr: 0x10000D9E4, symSize: 0x2C }
  - { offsetInCU: 0x1A6BA, offset: 0x1A6BA, size: 0x8, addend: 0x0, symName: __ZNSt3__114pointer_traitsIPNS_15__tree_end_nodeIPNS_16__tree_node_baseIPvEEEEE10pointer_toB8ue170006ERS6_, symObjAddr: 0x9588, symBinAddr: 0x10000DA10, symSize: 0x14 }
  - { offsetInCU: 0x1A6DD, offset: 0x1A6DD, size: 0x8, addend: 0x0, symName: __ZNKSt3__117__compressed_pairINS_15__tree_end_nodeIPNS_16__tree_node_baseIPvEEEENS_9allocatorINS_11__tree_nodeINS_12__value_typeIi16MutationProposalEES3_EEEEE5firstB8ue170006Ev, symObjAddr: 0x959C, symBinAddr: 0x10000DA24, symSize: 0x24 }
  - { offsetInCU: 0x1A703, offset: 0x1A703, size: 0x8, addend: 0x0, symName: __ZNKSt3__122__compressed_pair_elemINS_15__tree_end_nodeIPNS_16__tree_node_baseIPvEEEELi0ELb0EE5__getB8ue170006Ev, symObjAddr: 0x95C0, symBinAddr: 0x10000DA48, symSize: 0x14 }
  - { offsetInCU: 0x1A729, offset: 0x1A729, size: 0x8, addend: 0x0, symName: __ZNSt3__117__compressed_pairImNS_19__map_value_compareIiNS_12__value_typeIi16MutationProposalEENS_4lessIiEELb1EEEE6secondB8ue170006Ev, symObjAddr: 0x95D4, symBinAddr: 0x10000DA5C, symSize: 0x24 }
  - { offsetInCU: 0x1A74F, offset: 0x1A74F, size: 0x8, addend: 0x0, symName: __ZNSt3__122__compressed_pair_elemINS_19__map_value_compareIiNS_12__value_typeIi16MutationProposalEENS_4lessIiEELb1EEELi1ELb1EE5__getB8ue170006Ev, symObjAddr: 0x95F8, symBinAddr: 0x10000DA80, symSize: 0x14 }
  - { offsetInCU: 0x1A775, offset: 0x1A775, size: 0x8, addend: 0x0, symName: __ZNKSt3__14lessIiEclB8ue170006ERKiS3_, symObjAddr: 0x960C, symBinAddr: 0x10000DA94, symSize: 0x34 }
  - { offsetInCU: 0x1A7B9, offset: 0x1A7B9, size: 0x8, addend: 0x0, symName: __ZNKSt3__112__value_typeIi16MutationProposalE11__get_valueB8ue170006Ev, symObjAddr: 0x9640, symBinAddr: 0x10000DAC8, symSize: 0x14 }
  - { offsetInCU: 0x1A7DF, offset: 0x1A7DF, size: 0x8, addend: 0x0, symName: __ZNSt3__117__compressed_pairINS_15__tree_end_nodeIPNS_16__tree_node_baseIPvEEEENS_9allocatorINS_11__tree_nodeINS_12__value_typeIi16MutationProposalEES3_EEEEE5firstB8ue170006Ev, symObjAddr: 0x9654, symBinAddr: 0x10000DADC, symSize: 0x24 }
  - { offsetInCU: 0x1A805, offset: 0x1A805, size: 0x8, addend: 0x0, symName: __ZNSt3__122__compressed_pair_elemINS_15__tree_end_nodeIPNS_16__tree_node_baseIPvEEEELi0ELb0EE5__getB8ue170006Ev, symObjAddr: 0x9678, symBinAddr: 0x10000DB00, symSize: 0x14 }
  - { offsetInCU: 0x1A82B, offset: 0x1A82B, size: 0x8, addend: 0x0, symName: __ZNSt3__16__treeINS_12__value_typeIi16MutationProposalEENS_19__map_value_compareIiS3_NS_4lessIiEELb1EEENS_9allocatorIS3_EEE12__node_allocB8ue170006Ev, symObjAddr: 0x968C, symBinAddr: 0x10000DB14, symSize: 0x28 }
  - { offsetInCU: 0x1A851, offset: 0x1A851, size: 0x8, addend: 0x0, symName: __ZNSt3__116allocator_traitsINS_9allocatorINS_11__tree_nodeINS_12__value_typeIi16MutationProposalEEPvEEEEE8allocateB8ue170006ERS8_m, symObjAddr: 0x96B4, symBinAddr: 0x10000DB3C, symSize: 0x2C }
  - { offsetInCU: 0x1A884, offset: 0x1A884, size: 0x8, addend: 0x0, symName: __ZNSt3__121__map_node_destructorINS_9allocatorINS_11__tree_nodeINS_12__value_typeIi16MutationProposalEEPvEEEEEC1B8ue170006ERS8_, symObjAddr: 0x96E0, symBinAddr: 0x10000DB68, symSize: 0x34 }
  - { offsetInCU: 0x1A8C3, offset: 0x1A8C3, size: 0x8, addend: 0x0, symName: __ZNSt3__110unique_ptrINS_11__tree_nodeINS_12__value_typeIi16MutationProposalEEPvEENS_21__map_node_destructorINS_9allocatorIS6_EEEEEC1B8ue170006ILb1EvEEPS6_NS_16__dependent_typeINS_27__unique_ptr_deleter_sfinaeISA_EEXT_EE20__good_rval_ref_typeE, symObjAddr: 0x9714, symBinAddr: 0x10000DB9C, symSize: 0x3C }
  - { offsetInCU: 0x1A919, offset: 0x1A919, size: 0x8, addend: 0x0, symName: __ZNSt3__116allocator_traitsINS_9allocatorINS_11__tree_nodeINS_12__value_typeIi16MutationProposalEEPvEEEEE9constructB8ue170006IKiJRSB_EvEEvRS8_PT_DpOT0_, symObjAddr: 0x9750, symBinAddr: 0x10000DBD8, symSize: 0x34 }
  - { offsetInCU: 0x1A970, offset: 0x1A970, size: 0x8, addend: 0x0, symName: __ZNKSt3__110unique_ptrINS_11__tree_nodeINS_12__value_typeIi16MutationProposalEEPvEENS_21__map_node_destructorINS_9allocatorIS6_EEEEEptB8ue170006Ev, symObjAddr: 0x9784, symBinAddr: 0x10000DC0C, symSize: 0x28 }
  - { offsetInCU: 0x1A996, offset: 0x1A996, size: 0x8, addend: 0x0, symName: __ZNSt3__110unique_ptrINS_11__tree_nodeINS_12__value_typeIi16MutationProposalEEPvEENS_21__map_node_destructorINS_9allocatorIS6_EEEEE11get_deleterB8ue170006Ev, symObjAddr: 0x97AC, symBinAddr: 0x10000DC34, symSize: 0x24 }
  - { offsetInCU: 0x1A9C1, offset: 0x1A9C1, size: 0x8, addend: 0x0, symName: __ZNSt3__116allocator_traitsINS_9allocatorINS_11__tree_nodeINS_12__value_typeIi16MutationProposalEEPvEEEEE9constructB8ue170006IS4_JEvEEvRS8_PT_DpOT0_, symObjAddr: 0x97D0, symBinAddr: 0x10000DC58, symSize: 0x2C }
  - { offsetInCU: 0x1AA03, offset: 0x1AA03, size: 0x8, addend: 0x0, symName: __ZNSt3__117__compressed_pairINS_15__tree_end_nodeIPNS_16__tree_node_baseIPvEEEENS_9allocatorINS_11__tree_nodeINS_12__value_typeIi16MutationProposalEES3_EEEEE6secondB8ue170006Ev, symObjAddr: 0x97FC, symBinAddr: 0x10000DC84, symSize: 0x24 }
  - { offsetInCU: 0x1AA29, offset: 0x1AA29, size: 0x8, addend: 0x0, symName: __ZNSt3__122__compressed_pair_elemINS_9allocatorINS_11__tree_nodeINS_12__value_typeIi16MutationProposalEEPvEEEELi1ELb1EE5__getB8ue170006Ev, symObjAddr: 0x9820, symBinAddr: 0x10000DCA8, symSize: 0x14 }
  - { offsetInCU: 0x1AA4F, offset: 0x1AA4F, size: 0x8, addend: 0x0, symName: __ZNSt3__19allocatorINS_11__tree_nodeINS_12__value_typeIi16MutationProposalEEPvEEE8allocateB8ue170006Em, symObjAddr: 0x9834, symBinAddr: 0x10000DCBC, symSize: 0x8C }
  - { offsetInCU: 0x1AA8D, offset: 0x1AA8D, size: 0x8, addend: 0x0, symName: __ZNSt3__116allocator_traitsINS_9allocatorINS_11__tree_nodeINS_12__value_typeIi16MutationProposalEEPvEEEEE8max_sizeB8ue170006IS8_vEEmRKS8_, symObjAddr: 0x98C0, symBinAddr: 0x10000DD48, symSize: 0x24 }
  - { offsetInCU: 0x1AABB, offset: 0x1AABB, size: 0x8, addend: 0x0, symName: __ZNKSt3__19allocatorINS_11__tree_nodeINS_12__value_typeIi16MutationProposalEEPvEEE8max_sizeB8ue170006Ev, symObjAddr: 0x98E4, symBinAddr: 0x10000DD6C, symSize: 0x20 }
  - { offsetInCU: 0x1AAE1, offset: 0x1AAE1, size: 0x8, addend: 0x0, symName: __ZNSt3__121__map_node_destructorINS_9allocatorINS_11__tree_nodeINS_12__value_typeIi16MutationProposalEEPvEEEEEC2B8ue170006ERS8_, symObjAddr: 0x9904, symBinAddr: 0x10000DD8C, symSize: 0x28 }
  - { offsetInCU: 0x1AB1A, offset: 0x1AB1A, size: 0x8, addend: 0x0, symName: __ZNSt3__110unique_ptrINS_11__tree_nodeINS_12__value_typeIi16MutationProposalEEPvEENS_21__map_node_destructorINS_9allocatorIS6_EEEEEC2B8ue170006ILb1EvEEPS6_NS_16__dependent_typeINS_27__unique_ptr_deleter_sfinaeISA_EEXT_EE20__good_rval_ref_typeE, symObjAddr: 0x992C, symBinAddr: 0x10000DDB4, symSize: 0x5C }
  - { offsetInCU: 0x1AB6B, offset: 0x1AB6B, size: 0x8, addend: 0x0, symName: __ZNSt3__117__compressed_pairIPNS_11__tree_nodeINS_12__value_typeIi16MutationProposalEEPvEENS_21__map_node_destructorINS_9allocatorIS6_EEEEEC1B8ue170006IRS7_SB_EEOT_OT0_, symObjAddr: 0x9988, symBinAddr: 0x10000DE10, symSize: 0x3C }
  - { offsetInCU: 0x1ABC3, offset: 0x1ABC3, size: 0x8, addend: 0x0, symName: __ZNSt3__117__compressed_pairIPNS_11__tree_nodeINS_12__value_typeIi16MutationProposalEEPvEENS_21__map_node_destructorINS_9allocatorIS6_EEEEEC2B8ue170006IRS7_SB_EEOT_OT0_, symObjAddr: 0x99C4, symBinAddr: 0x10000DE4C, symSize: 0x48 }
  - { offsetInCU: 0x1AC1B, offset: 0x1AC1B, size: 0x8, addend: 0x0, symName: __ZNSt3__122__compressed_pair_elemIPNS_11__tree_nodeINS_12__value_typeIi16MutationProposalEEPvEELi0ELb0EEC2B8ue170006IRS7_vEEOT_, symObjAddr: 0x9A0C, symBinAddr: 0x10000DE94, symSize: 0x24 }
  - { offsetInCU: 0x1AC5D, offset: 0x1AC5D, size: 0x8, addend: 0x0, symName: __ZNSt3__122__compressed_pair_elemINS_21__map_node_destructorINS_9allocatorINS_11__tree_nodeINS_12__value_typeIi16MutationProposalEEPvEEEEEELi1ELb0EEC2B8ue170006ISA_vEEOT_, symObjAddr: 0x9A30, symBinAddr: 0x10000DEB8, symSize: 0x24 }
  - { offsetInCU: 0x1AC9F, offset: 0x1AC9F, size: 0x8, addend: 0x0, symName: __ZNSt3__19allocatorINS_11__tree_nodeINS_12__value_typeIi16MutationProposalEEPvEEE9constructB8ue170006IKiJRS9_EEEvPT_DpOT0_, symObjAddr: 0x9A54, symBinAddr: 0x10000DEDC, symSize: 0x28 }
  - { offsetInCU: 0x1ACF5, offset: 0x1ACF5, size: 0x8, addend: 0x0, symName: __ZNKSt3__117__compressed_pairIPNS_11__tree_nodeINS_12__value_typeIi16MutationProposalEEPvEENS_21__map_node_destructorINS_9allocatorIS6_EEEEE5firstB8ue170006Ev, symObjAddr: 0x9A7C, symBinAddr: 0x10000DF04, symSize: 0x24 }
  - { offsetInCU: 0x1AD1B, offset: 0x1AD1B, size: 0x8, addend: 0x0, symName: __ZNKSt3__122__compressed_pair_elemIPNS_11__tree_nodeINS_12__value_typeIi16MutationProposalEEPvEELi0ELb0EE5__getB8ue170006Ev, symObjAddr: 0x9AA0, symBinAddr: 0x10000DF28, symSize: 0x14 }
  - { offsetInCU: 0x1AD41, offset: 0x1AD41, size: 0x8, addend: 0x0, symName: __ZNSt3__117__compressed_pairIPNS_11__tree_nodeINS_12__value_typeIi16MutationProposalEEPvEENS_21__map_node_destructorINS_9allocatorIS6_EEEEE6secondB8ue170006Ev, symObjAddr: 0x9AB4, symBinAddr: 0x10000DF3C, symSize: 0x28 }
  - { offsetInCU: 0x1AD67, offset: 0x1AD67, size: 0x8, addend: 0x0, symName: __ZNSt3__122__compressed_pair_elemINS_21__map_node_destructorINS_9allocatorINS_11__tree_nodeINS_12__value_typeIi16MutationProposalEEPvEEEEEELi1ELb0EE5__getB8ue170006Ev, symObjAddr: 0x9ADC, symBinAddr: 0x10000DF64, symSize: 0x14 }
  - { offsetInCU: 0x1AD8D, offset: 0x1AD8D, size: 0x8, addend: 0x0, symName: __ZNSt3__19allocatorINS_11__tree_nodeINS_12__value_typeIi16MutationProposalEEPvEEE9constructB8ue170006IS3_JEEEvPT_DpOT0_, symObjAddr: 0x9AF0, symBinAddr: 0x10000DF78, symSize: 0x3C }
  - { offsetInCU: 0x1ADD4, offset: 0x1ADD4, size: 0x8, addend: 0x0, symName: __ZN16MutationProposalC1Ev, symObjAddr: 0x9B2C, symBinAddr: 0x10000DFB4, symSize: 0x2C }
  - { offsetInCU: 0x1AE00, offset: 0x1AE00, size: 0x8, addend: 0x0, symName: __ZN16MutationProposalC2Ev, symObjAddr: 0x9B58, symBinAddr: 0x10000DFE0, symSize: 0x80 }
  - { offsetInCU: 0x1AE2C, offset: 0x1AE2C, size: 0x8, addend: 0x0, symName: __ZNSt3__16vectorIcNS_9allocatorIcEEEC1B8ue170006Ev, symObjAddr: 0x9BD8, symBinAddr: 0x10000E060, symSize: 0x2C }
  - { offsetInCU: 0x1AE56, offset: 0x1AE56, size: 0x8, addend: 0x0, symName: __ZNSt3__16vectorIcNS_9allocatorIcEEED1B8ue170006Ev, symObjAddr: 0x9C04, symBinAddr: 0x10000E08C, symSize: 0x2C }
  - { offsetInCU: 0x1AE80, offset: 0x1AE80, size: 0x8, addend: 0x0, symName: __ZNSt3__16vectorIcNS_9allocatorIcEEEC2B8ue170006Ev, symObjAddr: 0x9C30, symBinAddr: 0x10000E0B8, symSize: 0x44 }
  - { offsetInCU: 0x1AEAA, offset: 0x1AEAA, size: 0x8, addend: 0x0, symName: __ZNSt3__117__compressed_pairIPcNS_9allocatorIcEEEC1B8ue170006IDnNS_18__default_init_tagEEEOT_OT0_, symObjAddr: 0x9C74, symBinAddr: 0x10000E0FC, symSize: 0x3C }
  - { offsetInCU: 0x1AF02, offset: 0x1AF02, size: 0x8, addend: 0x0, symName: __ZNSt3__117__compressed_pairIPcNS_9allocatorIcEEEC2B8ue170006IDnNS_18__default_init_tagEEEOT_OT0_, symObjAddr: 0x9CB0, symBinAddr: 0x10000E138, symSize: 0x40 }
  - { offsetInCU: 0x1AF5A, offset: 0x1AF5A, size: 0x8, addend: 0x0, symName: __ZNSt3__122__compressed_pair_elemIPcLi0ELb0EEC2B8ue170006IDnvEEOT_, symObjAddr: 0x9CF0, symBinAddr: 0x10000E178, symSize: 0x1C }
  - { offsetInCU: 0x1AF9C, offset: 0x1AF9C, size: 0x8, addend: 0x0, symName: __ZNSt3__16vectorIcNS_9allocatorIcEEED2B8ue170006Ev, symObjAddr: 0x9D0C, symBinAddr: 0x10000E194, symSize: 0x3C }
  - { offsetInCU: 0x1AFC6, offset: 0x1AFC6, size: 0x8, addend: 0x0, symName: __ZNSt3__16vectorIcNS_9allocatorIcEEE16__destroy_vectorC1B8ue170006ERS3_, symObjAddr: 0x9D48, symBinAddr: 0x10000E1D0, symSize: 0x34 }
  - { offsetInCU: 0x1AFFF, offset: 0x1AFFF, size: 0x8, addend: 0x0, symName: __ZNSt3__16vectorIcNS_9allocatorIcEEE16__destroy_vectorclB8ue170006Ev, symObjAddr: 0x9D7C, symBinAddr: 0x10000E204, symSize: 0x90 }
  - { offsetInCU: 0x1B025, offset: 0x1B025, size: 0x8, addend: 0x0, symName: __ZNSt3__16vectorIcNS_9allocatorIcEEE16__destroy_vectorC2B8ue170006ERS3_, symObjAddr: 0x9E0C, symBinAddr: 0x10000E294, symSize: 0x20 }
  - { offsetInCU: 0x1B05E, offset: 0x1B05E, size: 0x8, addend: 0x0, symName: __ZNSt3__16vectorIcNS_9allocatorIcEEE7__clearB8ue170006Ev, symObjAddr: 0x9E2C, symBinAddr: 0x10000E2B4, symSize: 0x28 }
  - { offsetInCU: 0x1B084, offset: 0x1B084, size: 0x8, addend: 0x0, symName: __ZNKSt3__16vectorIcNS_9allocatorIcEEE17__annotate_deleteB8ue170006Ev, symObjAddr: 0x9E54, symBinAddr: 0x10000E2DC, symSize: 0xB8 }
  - { offsetInCU: 0x1B0AA, offset: 0x1B0AA, size: 0x8, addend: 0x0, symName: __ZNSt3__116allocator_traitsINS_9allocatorIcEEE10deallocateB8ue170006ERS2_Pcm, symObjAddr: 0x9F0C, symBinAddr: 0x10000E394, symSize: 0x34 }
  - { offsetInCU: 0x1B0EC, offset: 0x1B0EC, size: 0x8, addend: 0x0, symName: __ZNSt3__16vectorIcNS_9allocatorIcEEE7__allocB8ue170006Ev, symObjAddr: 0x9F40, symBinAddr: 0x10000E3C8, symSize: 0x28 }
  - { offsetInCU: 0x1B112, offset: 0x1B112, size: 0x8, addend: 0x0, symName: __ZNKSt3__16vectorIcNS_9allocatorIcEEE8capacityB8ue170006Ev, symObjAddr: 0x9F68, symBinAddr: 0x10000E3F0, symSize: 0x38 }
  - { offsetInCU: 0x1B138, offset: 0x1B138, size: 0x8, addend: 0x0, symName: __ZNSt3__16vectorIcNS_9allocatorIcEEE22__base_destruct_at_endB8ue170006EPc, symObjAddr: 0x9FA0, symBinAddr: 0x10000E428, symSize: 0xA0 }
  - { offsetInCU: 0x1B17C, offset: 0x1B17C, size: 0x8, addend: 0x0, symName: __ZNSt3__116allocator_traitsINS_9allocatorIcEEE7destroyB8ue170006IcvEEvRS2_PT_, symObjAddr: 0xA040, symBinAddr: 0x10000E4C8, symSize: 0x2C }
  - { offsetInCU: 0x1B1B9, offset: 0x1B1B9, size: 0x8, addend: 0x0, symName: __ZNSt3__19allocatorIcE7destroyB8ue170006EPc, symObjAddr: 0xA080, symBinAddr: 0x10000E508, symSize: 0x14 }
  - { offsetInCU: 0x1B1ED, offset: 0x1B1ED, size: 0x8, addend: 0x0, symName: __ZNKSt3__16vectorIcNS_9allocatorIcEEE31__annotate_contiguous_containerB8ue170006EPKvS5_S5_S5_, symObjAddr: 0xA094, symBinAddr: 0x10000E51C, symSize: 0x20 }
  - { offsetInCU: 0x1B23F, offset: 0x1B23F, size: 0x8, addend: 0x0, symName: __ZNKSt3__16vectorIcNS_9allocatorIcEEE4dataB8ue170006Ev, symObjAddr: 0xA0B4, symBinAddr: 0x10000E53C, symSize: 0x28 }
  - { offsetInCU: 0x1B265, offset: 0x1B265, size: 0x8, addend: 0x0, symName: __ZNKSt3__16vectorIcNS_9allocatorIcEEE4sizeB8ue170006Ev, symObjAddr: 0xA0DC, symBinAddr: 0x10000E564, symSize: 0x20 }
  - { offsetInCU: 0x1B28B, offset: 0x1B28B, size: 0x8, addend: 0x0, symName: __ZNSt3__19allocatorIcE10deallocateB8ue170006EPcm, symObjAddr: 0xA0FC, symBinAddr: 0x10000E584, symSize: 0x70 }
  - { offsetInCU: 0x1B2CD, offset: 0x1B2CD, size: 0x8, addend: 0x0, symName: __ZNSt3__117__compressed_pairIPcNS_9allocatorIcEEE6secondB8ue170006Ev, symObjAddr: 0xA16C, symBinAddr: 0x10000E5F4, symSize: 0x24 }
  - { offsetInCU: 0x1B2F3, offset: 0x1B2F3, size: 0x8, addend: 0x0, symName: __ZNKSt3__16vectorIcNS_9allocatorIcEEE9__end_capB8ue170006Ev, symObjAddr: 0xA190, symBinAddr: 0x10000E618, symSize: 0x28 }
  - { offsetInCU: 0x1B319, offset: 0x1B319, size: 0x8, addend: 0x0, symName: __ZNKSt3__117__compressed_pairIPcNS_9allocatorIcEEE5firstB8ue170006Ev, symObjAddr: 0xA1B8, symBinAddr: 0x10000E640, symSize: 0x24 }
  - { offsetInCU: 0x1B33F, offset: 0x1B33F, size: 0x8, addend: 0x0, symName: __ZNKSt3__122__compressed_pair_elemIPcLi0ELb0EE5__getB8ue170006Ev, symObjAddr: 0xA1DC, symBinAddr: 0x10000E664, symSize: 0x14 }
  - { offsetInCU: 0x1B365, offset: 0x1B365, size: 0x8, addend: 0x0, symName: __ZNSt3__16__treeINS_12__value_typeIi16MutationProposalEENS_19__map_value_compareIiS3_NS_4lessIiEELb1EEENS_9allocatorIS3_EEE12__begin_nodeB8ue170006Ev, symObjAddr: 0xA1F0, symBinAddr: 0x10000E678, symSize: 0x14 }
  - { offsetInCU: 0x1B38B, offset: 0x1B38B, size: 0x8, addend: 0x0, symName: __ZNSt3__16__treeINS_12__value_typeIi16MutationProposalEENS_19__map_value_compareIiS3_NS_4lessIiEELb1EEENS_9allocatorIS3_EEE4sizeB8ue170006Ev, symObjAddr: 0xA544, symBinAddr: 0x10000E9CC, symSize: 0x28 }
  - { offsetInCU: 0x1B3B1, offset: 0x1B3B1, size: 0x8, addend: 0x0, symName: __ZNKSt3__116__tree_node_baseIPvE15__parent_unsafeB8ue170006Ev, symObjAddr: 0xA56C, symBinAddr: 0x10000E9F4, symSize: 0x18 }
  - { offsetInCU: 0x1B3D7, offset: 0x1B3D7, size: 0x8, addend: 0x0, symName: __ZNSt3__116__tree_node_baseIPvE12__set_parentB8ue170006EPS2_, symObjAddr: 0xA768, symBinAddr: 0x10000EBF0, symSize: 0x20 }
  - { offsetInCU: 0x1B40C, offset: 0x1B40C, size: 0x8, addend: 0x0, symName: __ZNSt3__117__compressed_pairImNS_19__map_value_compareIiNS_12__value_typeIi16MutationProposalEENS_4lessIiEELb1EEEE5firstB8ue170006Ev, symObjAddr: 0xA788, symBinAddr: 0x10000EC10, symSize: 0x24 }
  - { offsetInCU: 0x1B432, offset: 0x1B432, size: 0x8, addend: 0x0, symName: __ZNSt3__122__compressed_pair_elemImLi0ELb0EE5__getB8ue170006Ev, symObjAddr: 0xA7AC, symBinAddr: 0x10000EC34, symSize: 0x14 }
  - { offsetInCU: 0x1B458, offset: 0x1B458, size: 0x8, addend: 0x0, symName: __ZNSt3__117__compressed_pairIPNS_11__tree_nodeINS_12__value_typeIi16MutationProposalEEPvEENS_21__map_node_destructorINS_9allocatorIS6_EEEEE5firstB8ue170006Ev, symObjAddr: 0xA7C0, symBinAddr: 0x10000EC48, symSize: 0x24 }
  - { offsetInCU: 0x1B47E, offset: 0x1B47E, size: 0x8, addend: 0x0, symName: __ZNSt3__122__compressed_pair_elemIPNS_11__tree_nodeINS_12__value_typeIi16MutationProposalEEPvEELi0ELb0EE5__getB8ue170006Ev, symObjAddr: 0xA7E4, symBinAddr: 0x10000EC6C, symSize: 0x14 }
  - { offsetInCU: 0x1B4A4, offset: 0x1B4A4, size: 0x8, addend: 0x0, symName: __ZNSt3__110unique_ptrINS_11__tree_nodeINS_12__value_typeIi16MutationProposalEEPvEENS_21__map_node_destructorINS_9allocatorIS6_EEEEED2B8ue170006Ev, symObjAddr: 0xA7F8, symBinAddr: 0x10000EC80, symSize: 0x30 }
  - { offsetInCU: 0x1B4CE, offset: 0x1B4CE, size: 0x8, addend: 0x0, symName: __ZNSt3__110unique_ptrINS_11__tree_nodeINS_12__value_typeIi16MutationProposalEEPvEENS_21__map_node_destructorINS_9allocatorIS6_EEEEE5resetB8ue170006EPS6_, symObjAddr: 0xA828, symBinAddr: 0x10000ECB0, symSize: 0x78 }
  - { offsetInCU: 0x1B512, offset: 0x1B512, size: 0x8, addend: 0x0, symName: __ZNSt3__121__map_node_destructorINS_9allocatorINS_11__tree_nodeINS_12__value_typeIi16MutationProposalEEPvEEEEEclB8ue170006EPS7_, symObjAddr: 0xA8A0, symBinAddr: 0x10000ED28, symSize: 0xF4 }
  - { offsetInCU: 0x1B547, offset: 0x1B547, size: 0x8, addend: 0x0, symName: __ZNSt3__116allocator_traitsINS_9allocatorINS_11__tree_nodeINS_12__value_typeIi16MutationProposalEEPvEEEEE7destroyB8ue170006IS4_vvEEvRS8_PT_, symObjAddr: 0xA994, symBinAddr: 0x10000EE1C, symSize: 0x28 }
  - { offsetInCU: 0x1B581, offset: 0x1B581, size: 0x8, addend: 0x0, symName: __ZNSt3__116allocator_traitsINS_9allocatorINS_11__tree_nodeINS_12__value_typeIi16MutationProposalEEPvEEEEE7destroyB8ue170006IKivvEEvRS8_PT_, symObjAddr: 0xA9BC, symBinAddr: 0x10000EE44, symSize: 0x14 }
  - { offsetInCU: 0x1B5BB, offset: 0x1B5BB, size: 0x8, addend: 0x0, symName: __ZNSt3__116allocator_traitsINS_9allocatorINS_11__tree_nodeINS_12__value_typeIi16MutationProposalEEPvEEEEE10deallocateB8ue170006ERS8_PS7_m, symObjAddr: 0xA9D0, symBinAddr: 0x10000EE58, symSize: 0x34 }
  - { offsetInCU: 0x1B5FD, offset: 0x1B5FD, size: 0x8, addend: 0x0, symName: __ZN16MutationProposalD1Ev, symObjAddr: 0xAA04, symBinAddr: 0x10000EE8C, symSize: 0x2C }
  - { offsetInCU: 0x1B629, offset: 0x1B629, size: 0x8, addend: 0x0, symName: __ZN16MutationProposalD2Ev, symObjAddr: 0xAA30, symBinAddr: 0x10000EEB8, symSize: 0x6C }
  - { offsetInCU: 0x1B655, offset: 0x1B655, size: 0x8, addend: 0x0, symName: __ZNSt3__19allocatorINS_11__tree_nodeINS_12__value_typeIi16MutationProposalEEPvEEE10deallocateB8ue170006EPS6_m, symObjAddr: 0xAA9C, symBinAddr: 0x10000EF24, symSize: 0x74 }
  - { offsetInCU: 0x1B697, offset: 0x1B697, size: 0x8, addend: 0x0, symName: __ZNSt3__16vectorIcNS_9allocatorIcEEE9__end_capB8ue170006Ev, symObjAddr: 0xAB10, symBinAddr: 0x10000EF98, symSize: 0x28 }
  - { offsetInCU: 0x1B6BD, offset: 0x1B6BD, size: 0x8, addend: 0x0, symName: __ZNSt3__16vectorIcNS_9allocatorIcEEE22__construct_one_at_endB8ue170006IJRKcEEEvDpOT_, symObjAddr: 0xAB38, symBinAddr: 0x10000EFC0, symSize: 0x98 }
  - { offsetInCU: 0x1B70C, offset: 0x1B70C, size: 0x8, addend: 0x0, symName: __ZNSt3__16vectorIcNS_9allocatorIcEEE21__push_back_slow_pathIRKcEEvOT_, symObjAddr: 0xABD0, symBinAddr: 0x10000F058, symSize: 0xE0 }
  - { offsetInCU: 0x1B76A, offset: 0x1B76A, size: 0x8, addend: 0x0, symName: __ZNSt3__117__compressed_pairIPcNS_9allocatorIcEEE5firstB8ue170006Ev, symObjAddr: 0xACB0, symBinAddr: 0x10000F138, symSize: 0x24 }
  - { offsetInCU: 0x1B790, offset: 0x1B790, size: 0x8, addend: 0x0, symName: __ZNSt3__122__compressed_pair_elemIPcLi0ELb0EE5__getB8ue170006Ev, symObjAddr: 0xACD4, symBinAddr: 0x10000F15C, symSize: 0x14 }
  - { offsetInCU: 0x1B7CF, offset: 0x1B7CF, size: 0x8, addend: 0x0, symName: __ZNSt3__16vectorIcNS_9allocatorIcEEE21_ConstructTransactionC1B8ue170006ERS3_m, symObjAddr: 0xACE8, symBinAddr: 0x10000F170, symSize: 0x3C }
  - { offsetInCU: 0x1B817, offset: 0x1B817, size: 0x8, addend: 0x0, symName: __ZNSt3__116allocator_traitsINS_9allocatorIcEEE9constructB8ue170006IcJRKcEvEEvRS2_PT_DpOT0_, symObjAddr: 0xAD24, symBinAddr: 0x10000F1AC, symSize: 0x34 }
  - { offsetInCU: 0x1B86E, offset: 0x1B86E, size: 0x8, addend: 0x0, symName: __ZNSt3__16vectorIcNS_9allocatorIcEEE21_ConstructTransactionD1B8ue170006Ev, symObjAddr: 0xAD58, symBinAddr: 0x10000F1E0, symSize: 0x2C }
  - { offsetInCU: 0x1B898, offset: 0x1B898, size: 0x8, addend: 0x0, symName: __ZNSt3__16vectorIcNS_9allocatorIcEEE21_ConstructTransactionC2B8ue170006ERS3_m, symObjAddr: 0xAD84, symBinAddr: 0x10000F20C, symSize: 0x44 }
  - { offsetInCU: 0x1B8E0, offset: 0x1B8E0, size: 0x8, addend: 0x0, symName: __ZNSt3__19allocatorIcE9constructB8ue170006IcJRKcEEEvPT_DpOT0_, symObjAddr: 0xADC8, symBinAddr: 0x10000F250, symSize: 0x28 }
  - { offsetInCU: 0x1B936, offset: 0x1B936, size: 0x8, addend: 0x0, symName: __ZNSt3__16vectorIcNS_9allocatorIcEEE21_ConstructTransactionD2B8ue170006Ev, symObjAddr: 0xADF0, symBinAddr: 0x10000F278, symSize: 0x20 }
  - { offsetInCU: 0x1B960, offset: 0x1B960, size: 0x8, addend: 0x0, symName: __ZNKSt3__16vectorIcNS_9allocatorIcEEE11__recommendB8ue170006Em, symObjAddr: 0xAE10, symBinAddr: 0x10000F298, symSize: 0xB4 }
  - { offsetInCU: 0x1B9B5, offset: 0x1B9B5, size: 0x8, addend: 0x0, symName: __ZNSt3__114__split_bufferIcRNS_9allocatorIcEEEC1EmmS3_, symObjAddr: 0xAEC4, symBinAddr: 0x10000F34C, symSize: 0x44 }
  - { offsetInCU: 0x1BA0B, offset: 0x1BA0B, size: 0x8, addend: 0x0, symName: __ZNSt3__114__split_bufferIcRNS_9allocatorIcEEED1Ev, symObjAddr: 0xB018, symBinAddr: 0x10000F4A0, symSize: 0x2C }
  - { offsetInCU: 0x1BA37, offset: 0x1BA37, size: 0x8, addend: 0x0, symName: __ZNKSt3__16vectorIcNS_9allocatorIcEEE8max_sizeEv, symObjAddr: 0xB044, symBinAddr: 0x10000F4CC, symSize: 0x74 }
  - { offsetInCU: 0x1BA5F, offset: 0x1BA5F, size: 0x8, addend: 0x0, symName: __ZNKSt3__16vectorIcNS_9allocatorIcEEE20__throw_length_errorB8ue170006Ev, symObjAddr: 0xB0B8, symBinAddr: 0x10000F540, symSize: 0x1C }
  - { offsetInCU: 0x1BA85, offset: 0x1BA85, size: 0x8, addend: 0x0, symName: __ZNKSt3__16vectorIcNS_9allocatorIcEEE7__allocB8ue170006Ev, symObjAddr: 0xB0D4, symBinAddr: 0x10000F55C, symSize: 0x28 }
  - { offsetInCU: 0x1BAAB, offset: 0x1BAAB, size: 0x8, addend: 0x0, symName: __ZNKSt3__117__compressed_pairIPcNS_9allocatorIcEEE6secondB8ue170006Ev, symObjAddr: 0xB0FC, symBinAddr: 0x10000F584, symSize: 0x24 }
  - { offsetInCU: 0x1BAD1, offset: 0x1BAD1, size: 0x8, addend: 0x0, symName: __ZNSt3__114__split_bufferIcRNS_9allocatorIcEEEC2EmmS3_, symObjAddr: 0xB120, symBinAddr: 0x10000F5A8, symSize: 0xD4 }
  - { offsetInCU: 0x1BB44, offset: 0x1BB44, size: 0x8, addend: 0x0, symName: __ZNSt3__117__compressed_pairIPcRNS_9allocatorIcEEEC1B8ue170006IDnS4_EEOT_OT0_, symObjAddr: 0xB1F4, symBinAddr: 0x10000F67C, symSize: 0x3C }
  - { offsetInCU: 0x1BB9C, offset: 0x1BB9C, size: 0x8, addend: 0x0, symName: __ZNSt3__114__split_bufferIcRNS_9allocatorIcEEE7__allocB8ue170006Ev, symObjAddr: 0xB270, symBinAddr: 0x10000F6F8, symSize: 0x28 }
  - { offsetInCU: 0x1BBC2, offset: 0x1BBC2, size: 0x8, addend: 0x0, symName: __ZNSt3__114__split_bufferIcRNS_9allocatorIcEEE9__end_capB8ue170006Ev, symObjAddr: 0xB298, symBinAddr: 0x10000F720, symSize: 0x28 }
  - { offsetInCU: 0x1BBE8, offset: 0x1BBE8, size: 0x8, addend: 0x0, symName: __ZNSt3__117__compressed_pairIPcRNS_9allocatorIcEEEC2B8ue170006IDnS4_EEOT_OT0_, symObjAddr: 0xB2C0, symBinAddr: 0x10000F748, symSize: 0x48 }
  - { offsetInCU: 0x1BC40, offset: 0x1BC40, size: 0x8, addend: 0x0, symName: __ZNSt3__122__compressed_pair_elemIRNS_9allocatorIcEELi1ELb0EEC2B8ue170006IS3_vEEOT_, symObjAddr: 0xB308, symBinAddr: 0x10000F790, symSize: 0x20 }
  - { offsetInCU: 0x1BC82, offset: 0x1BC82, size: 0x8, addend: 0x0, symName: __ZNSt3__117__compressed_pairIPcRNS_9allocatorIcEEE6secondB8ue170006Ev, symObjAddr: 0xB328, symBinAddr: 0x10000F7B0, symSize: 0x28 }
  - { offsetInCU: 0x1BCA8, offset: 0x1BCA8, size: 0x8, addend: 0x0, symName: __ZNSt3__122__compressed_pair_elemIRNS_9allocatorIcEELi1ELb0EE5__getB8ue170006Ev, symObjAddr: 0xB350, symBinAddr: 0x10000F7D8, symSize: 0x18 }
  - { offsetInCU: 0x1BCCE, offset: 0x1BCCE, size: 0x8, addend: 0x0, symName: __ZNSt3__117__compressed_pairIPcRNS_9allocatorIcEEE5firstB8ue170006Ev, symObjAddr: 0xB368, symBinAddr: 0x10000F7F0, symSize: 0x24 }
  - { offsetInCU: 0x1BCF4, offset: 0x1BCF4, size: 0x8, addend: 0x0, symName: __ZNSt3__116reverse_iteratorIPcEC1B8ue170006ES1_, symObjAddr: 0xB474, symBinAddr: 0x10000F8FC, symSize: 0x34 }
  - { offsetInCU: 0x1BD2C, offset: 0x1BD2C, size: 0x8, addend: 0x0, symName: __ZNKSt3__116reverse_iteratorIPcE4baseB8ue170006Ev, symObjAddr: 0xB4A8, symBinAddr: 0x10000F930, symSize: 0x18 }
  - { offsetInCU: 0x1BD52, offset: 0x1BD52, size: 0x8, addend: 0x0, symName: __ZNKSt3__16vectorIcNS_9allocatorIcEEE14__annotate_newB8ue170006Em, symObjAddr: 0xB4FC, symBinAddr: 0x10000F984, symSize: 0xAC }
  - { offsetInCU: 0x1BD87, offset: 0x1BD87, size: 0x8, addend: 0x0, symName: __ZNKSt3__116reverse_iteratorIPcEdeB8ue170006Ev, symObjAddr: 0xB640, symBinAddr: 0x10000FAC8, symSize: 0x28 }
  - { offsetInCU: 0x1BDBB, offset: 0x1BDBB, size: 0x8, addend: 0x0, symName: __ZNSt3__116reverse_iteratorIPcEppB8ue170006Ev, symObjAddr: 0xB668, symBinAddr: 0x10000FAF0, symSize: 0x20 }
  - { offsetInCU: 0x1BDE6, offset: 0x1BDE6, size: 0x8, addend: 0x0, symName: __ZNSt3__119__to_address_helperINS_16reverse_iteratorIPcEEvE6__callB8ue170006ERKS3_, symObjAddr: 0xB700, symBinAddr: 0x10000FB88, symSize: 0x4C }
  - { offsetInCU: 0x1BE09, offset: 0x1BE09, size: 0x8, addend: 0x0, symName: __ZNKSt3__116reverse_iteratorIPcEptB8ue170006Ev, symObjAddr: 0xB74C, symBinAddr: 0x10000FBD4, symSize: 0x24 }
  - { offsetInCU: 0x1BE53, offset: 0x1BE53, size: 0x8, addend: 0x0, symName: __ZNKSt3__111__move_loopINS_17_ClassicAlgPolicyEEclB8ue170006INS_16reverse_iteratorIPcEES6_S6_EENS_4pairIT_T1_EES8_T0_S9_, symObjAddr: 0xB9E8, symBinAddr: 0x10000FE70, symSize: 0xA0 }
  - { offsetInCU: 0x1BEC4, offset: 0x1BEC4, size: 0x8, addend: 0x0, symName: __ZNSt3__18_IterOpsINS_17_ClassicAlgPolicyEE11__iter_moveB8ue170006IRNS_16reverse_iteratorIPcEEEENS_9enable_ifIXsr12is_referenceIDTdeclsr3stdE7declvalIRT_EEEEE5valueEDTclsr3stdE4movedeclsr3stdE7declvalISA_EEEEE4typeEOS9_, symObjAddr: 0xBBE8, symBinAddr: 0x100010070, symSize: 0x28 }
  - { offsetInCU: 0x1BEF0, offset: 0x1BEF0, size: 0x8, addend: 0x0, symName: __ZNSt3__18_IterOpsINS_17_ClassicAlgPolicyEE25__validate_iter_referenceB8ue170006IRNS_16reverse_iteratorIPcEEEEvv, symObjAddr: 0xBC10, symBinAddr: 0x100010098, symSize: 0x4 }
  - { offsetInCU: 0x1BF0E, offset: 0x1BF0E, size: 0x8, addend: 0x0, symName: __ZNSt3__118__unwrap_iter_implINS_16reverse_iteratorIPcEELb0EE8__unwrapB8ue170006ES3_, symObjAddr: 0xBC14, symBinAddr: 0x10001009C, symSize: 0x24 }
  - { offsetInCU: 0x1BF31, offset: 0x1BF31, size: 0x8, addend: 0x0, symName: __ZNSt3__14pairINS_16reverse_iteratorIPcEES3_EC1B8ue170006ERKS3_S6_, symObjAddr: 0xBC38, symBinAddr: 0x1000100C0, symSize: 0x3C }
  - { offsetInCU: 0x1BF77, offset: 0x1BF77, size: 0x8, addend: 0x0, symName: __ZNSt3__14pairINS_16reverse_iteratorIPcEES3_EC2B8ue170006ERKS3_S6_, symObjAddr: 0xBC74, symBinAddr: 0x1000100FC, symSize: 0x34 }
  - { offsetInCU: 0x1BFBD, offset: 0x1BFBD, size: 0x8, addend: 0x0, symName: __ZNSt3__118__unwrap_iter_implINS_16reverse_iteratorIPcEELb0EE8__rewrapB8ue170006ES3_S3_, symObjAddr: 0xBCA8, symBinAddr: 0x100010130, symSize: 0x2C }
  - { offsetInCU: 0x1BFEA, offset: 0x1BFEA, size: 0x8, addend: 0x0, symName: __ZNSt3__116reverse_iteratorIPcEC2B8ue170006ES1_, symObjAddr: 0xBCD4, symBinAddr: 0x10001015C, symSize: 0x28 }
  - { offsetInCU: 0x1C022, offset: 0x1C022, size: 0x8, addend: 0x0, symName: __ZNSt3__114__split_bufferIcRNS_9allocatorIcEEED2Ev, symObjAddr: 0xBCFC, symBinAddr: 0x100010184, symSize: 0x80 }
  - { offsetInCU: 0x1C04E, offset: 0x1C04E, size: 0x8, addend: 0x0, symName: __ZNSt3__114__split_bufferIcRNS_9allocatorIcEEE5clearB8ue170006Ev, symObjAddr: 0xBD7C, symBinAddr: 0x100010204, symSize: 0x28 }
  - { offsetInCU: 0x1C074, offset: 0x1C074, size: 0x8, addend: 0x0, symName: __ZNKSt3__114__split_bufferIcRNS_9allocatorIcEEE8capacityB8ue170006Ev, symObjAddr: 0xBDA4, symBinAddr: 0x10001022C, symSize: 0x38 }
  - { offsetInCU: 0x1C09A, offset: 0x1C09A, size: 0x8, addend: 0x0, symName: __ZNSt3__114__split_bufferIcRNS_9allocatorIcEEE17__destruct_at_endB8ue170006EPc, symObjAddr: 0xBDDC, symBinAddr: 0x100010264, symSize: 0x2C }
  - { offsetInCU: 0x1C0CE, offset: 0x1C0CE, size: 0x8, addend: 0x0, symName: __ZNSt3__114__split_bufferIcRNS_9allocatorIcEEE17__destruct_at_endB8ue170006EPcNS_17integral_constantIbLb0EEE, symObjAddr: 0xBE08, symBinAddr: 0x100010290, symSize: 0x94 }
  - { offsetInCU: 0x1C10E, offset: 0x1C10E, size: 0x8, addend: 0x0, symName: __ZNKSt3__114__split_bufferIcRNS_9allocatorIcEEE9__end_capB8ue170006Ev, symObjAddr: 0xBE9C, symBinAddr: 0x100010324, symSize: 0x28 }
  - { offsetInCU: 0x1C134, offset: 0x1C134, size: 0x8, addend: 0x0, symName: __ZNKSt3__117__compressed_pairIPcRNS_9allocatorIcEEE5firstB8ue170006Ev, symObjAddr: 0xBEC4, symBinAddr: 0x10001034C, symSize: 0x24 }
  - { offsetInCU: 0x1C15A, offset: 0x1C15A, size: 0x8, addend: 0x0, symName: __ZNSt3__113basic_ostreamIcNS_11char_traitsIcEEEC2B8ue170006EPNS_15basic_streambufIcS2_EE, symObjAddr: 0xBEE8, symBinAddr: 0x100010370, symSize: 0x60 }
  - { offsetInCU: 0x1C19F, offset: 0x1C19F, size: 0x8, addend: 0x0, symName: __ZNSt3__13mapIi16MutationProposalNS_4lessIiEENS_9allocatorINS_4pairIKiS1_EEEEEC2B8ue170006Ev, symObjAddr: 0xBF48, symBinAddr: 0x1000103D0, symSize: 0x40 }
  - { offsetInCU: 0x1C1C9, offset: 0x1C1C9, size: 0x8, addend: 0x0, symName: __ZNSt3__119__map_value_compareIiNS_12__value_typeIi16MutationProposalEENS_4lessIiEELb1EEC1B8ue170006ES5_, symObjAddr: 0xBF88, symBinAddr: 0x100010410, symSize: 0x2C }
  - { offsetInCU: 0x1C202, offset: 0x1C202, size: 0x8, addend: 0x0, symName: __ZNSt3__16__treeINS_12__value_typeIi16MutationProposalEENS_19__map_value_compareIiS3_NS_4lessIiEELb1EEENS_9allocatorIS3_EEEC1ERKS7_, symObjAddr: 0xBFB4, symBinAddr: 0x10001043C, symSize: 0x34 }
  - { offsetInCU: 0x1C23D, offset: 0x1C23D, size: 0x8, addend: 0x0, symName: __ZNSt3__119__map_value_compareIiNS_12__value_typeIi16MutationProposalEENS_4lessIiEELb1EEC2B8ue170006ES5_, symObjAddr: 0xBFE8, symBinAddr: 0x100010470, symSize: 0x14 }
  - { offsetInCU: 0x1C276, offset: 0x1C276, size: 0x8, addend: 0x0, symName: __ZNSt3__16__treeINS_12__value_typeIi16MutationProposalEENS_19__map_value_compareIiS3_NS_4lessIiEELb1EEENS_9allocatorIS3_EEEC2ERKS7_, symObjAddr: 0xBFFC, symBinAddr: 0x100010484, symSize: 0x70 }
  - { offsetInCU: 0x1C2B1, offset: 0x1C2B1, size: 0x8, addend: 0x0, symName: __ZNSt3__117__compressed_pairINS_15__tree_end_nodeIPNS_16__tree_node_baseIPvEEEENS_9allocatorINS_11__tree_nodeINS_12__value_typeIi16MutationProposalEES3_EEEEEC1B8ue170006ILb1EvEEv, symObjAddr: 0xC06C, symBinAddr: 0x1000104F4, symSize: 0x2C }
  - { offsetInCU: 0x1C2EC, offset: 0x1C2EC, size: 0x8, addend: 0x0, symName: __ZNSt3__117__compressed_pairImNS_19__map_value_compareIiNS_12__value_typeIi16MutationProposalEENS_4lessIiEELb1EEEEC1B8ue170006IiRKS7_EEOT_OT0_, symObjAddr: 0xC098, symBinAddr: 0x100010520, symSize: 0x3C }
  - { offsetInCU: 0x1C344, offset: 0x1C344, size: 0x8, addend: 0x0, symName: __ZNSt3__117__compressed_pairINS_15__tree_end_nodeIPNS_16__tree_node_baseIPvEEEENS_9allocatorINS_11__tree_nodeINS_12__value_typeIi16MutationProposalEES3_EEEEEC2B8ue170006ILb1EvEEv, symObjAddr: 0xC0D4, symBinAddr: 0x10001055C, symSize: 0x34 }
  - { offsetInCU: 0x1C379, offset: 0x1C379, size: 0x8, addend: 0x0, symName: __ZNSt3__122__compressed_pair_elemINS_15__tree_end_nodeIPNS_16__tree_node_baseIPvEEEELi0ELb0EEC2B8ue170006ENS_16__value_init_tagE, symObjAddr: 0xC108, symBinAddr: 0x100010590, symSize: 0x2C }
  - { offsetInCU: 0x1C3AD, offset: 0x1C3AD, size: 0x8, addend: 0x0, symName: __ZNSt3__122__compressed_pair_elemINS_9allocatorINS_11__tree_nodeINS_12__value_typeIi16MutationProposalEEPvEEEELi1ELb1EEC2B8ue170006ENS_16__value_init_tagE, symObjAddr: 0xC134, symBinAddr: 0x1000105BC, symSize: 0x2C }
  - { offsetInCU: 0x1C3E1, offset: 0x1C3E1, size: 0x8, addend: 0x0, symName: __ZNSt3__115__tree_end_nodeIPNS_16__tree_node_baseIPvEEEC1B8ue170006Ev, symObjAddr: 0xC160, symBinAddr: 0x1000105E8, symSize: 0x2C }
  - { offsetInCU: 0x1C40B, offset: 0x1C40B, size: 0x8, addend: 0x0, symName: __ZNSt3__115__tree_end_nodeIPNS_16__tree_node_baseIPvEEEC2B8ue170006Ev, symObjAddr: 0xC18C, symBinAddr: 0x100010614, symSize: 0x18 }
  - { offsetInCU: 0x1C435, offset: 0x1C435, size: 0x8, addend: 0x0, symName: __ZNSt3__19allocatorINS_11__tree_nodeINS_12__value_typeIi16MutationProposalEEPvEEEC2B8ue170006Ev, symObjAddr: 0xC1A4, symBinAddr: 0x10001062C, symSize: 0x2C }
  - { offsetInCU: 0x1C45F, offset: 0x1C45F, size: 0x8, addend: 0x0, symName: __ZNSt3__116__non_trivial_ifILb1ENS_9allocatorINS_11__tree_nodeINS_12__value_typeIi16MutationProposalEEPvEEEEEC2B8ue170006Ev, symObjAddr: 0xC1D0, symBinAddr: 0x100010658, symSize: 0x14 }
  - { offsetInCU: 0x1C489, offset: 0x1C489, size: 0x8, addend: 0x0, symName: __ZNSt3__117__compressed_pairImNS_19__map_value_compareIiNS_12__value_typeIi16MutationProposalEENS_4lessIiEELb1EEEEC2B8ue170006IiRKS7_EEOT_OT0_, symObjAddr: 0xC1E4, symBinAddr: 0x10001066C, symSize: 0x44 }
  - { offsetInCU: 0x1C4E1, offset: 0x1C4E1, size: 0x8, addend: 0x0, symName: __ZNSt3__122__compressed_pair_elemImLi0ELb0EEC2B8ue170006IivEEOT_, symObjAddr: 0xC228, symBinAddr: 0x1000106B0, symSize: 0x24 }
  - { offsetInCU: 0x1C523, offset: 0x1C523, size: 0x8, addend: 0x0, symName: __ZNSt3__122__compressed_pair_elemINS_19__map_value_compareIiNS_12__value_typeIi16MutationProposalEENS_4lessIiEELb1EEELi1ELb1EEC2B8ue170006IRKS7_vEEOT_, symObjAddr: 0xC24C, symBinAddr: 0x1000106D4, symSize: 0x18 }
  - { offsetInCU: 0x1C565, offset: 0x1C565, size: 0x8, addend: 0x0, symName: __ZNSt3__13mapIi16MutationProposalNS_4lessIiEENS_9allocatorINS_4pairIKiS1_EEEEED2B8ue170006Ev, symObjAddr: 0xC264, symBinAddr: 0x1000106EC, symSize: 0x2C }
  - { offsetInCU: 0x1C58F, offset: 0x1C58F, size: 0x8, addend: 0x0, symName: __ZNSt3__16__treeINS_12__value_typeIi16MutationProposalEENS_19__map_value_compareIiS3_NS_4lessIiEELb1EEENS_9allocatorIS3_EEED1Ev, symObjAddr: 0xC290, symBinAddr: 0x100010718, symSize: 0x2C }
  - { offsetInCU: 0x1C5BB, offset: 0x1C5BB, size: 0x8, addend: 0x0, symName: __ZNSt3__16__treeINS_12__value_typeIi16MutationProposalEENS_19__map_value_compareIiS3_NS_4lessIiEELb1EEENS_9allocatorIS3_EEED2Ev, symObjAddr: 0xC2BC, symBinAddr: 0x100010744, symSize: 0x38 }
  - { offsetInCU: 0x1C5E7, offset: 0x1C5E7, size: 0x8, addend: 0x0, symName: __ZNSt3__16__treeINS_12__value_typeIi16MutationProposalEENS_19__map_value_compareIiS3_NS_4lessIiEELb1EEENS_9allocatorIS3_EEE7destroyEPNS_11__tree_nodeIS3_PvEE, symObjAddr: 0xC2F4, symBinAddr: 0x10001077C, symSize: 0xC0 }
  - { offsetInCU: 0x1C63B, offset: 0x1C63B, size: 0x8, addend: 0x0, symName: __ZNSt3__116allocator_traitsINS_9allocatorINS_11__tree_nodeINS_12__value_typeIi16MutationProposalEEPvEEEEE7destroyB8ue170006INS_4pairIKiS4_EEvvEEvRS8_PT_, symObjAddr: 0xC3B4, symBinAddr: 0x10001083C, symSize: 0x28 }
  - { offsetInCU: 0x1C675, offset: 0x1C675, size: 0x8, addend: 0x0, symName: __ZNSt3__122__tree_key_value_typesINS_12__value_typeIi16MutationProposalEEE9__get_ptrB8ue170006ERS3_, symObjAddr: 0xC3DC, symBinAddr: 0x100010864, symSize: 0x24 }
  - { offsetInCU: 0x1C699, offset: 0x1C699, size: 0x8, addend: 0x0, symName: __ZNSt3__14pairIKi16MutationProposalED1Ev, symObjAddr: 0xC400, symBinAddr: 0x100010888, symSize: 0x2C }
  - { offsetInCU: 0x1C6C5, offset: 0x1C6C5, size: 0x8, addend: 0x0, symName: __ZNSt3__14pairIKi16MutationProposalED2Ev, symObjAddr: 0xC42C, symBinAddr: 0x1000108B4, symSize: 0x30 }
  - { offsetInCU: 0x1C6F1, offset: 0x1C6F1, size: 0x8, addend: 0x0, symName: __ZNKSt3__16vectorI8SamEntryNS_9allocatorIS1_EEE11__make_iterB8ue170006EPKS1_, symObjAddr: 0xC45C, symBinAddr: 0x1000108E4, symSize: 0x30 }
  - { offsetInCU: 0x1C726, offset: 0x1C726, size: 0x8, addend: 0x0, symName: __ZNSt3__111__wrap_iterIPK8SamEntryEC1B8ue170006ES3_, symObjAddr: 0xC48C, symBinAddr: 0x100010914, symSize: 0x34 }
  - { offsetInCU: 0x1C75E, offset: 0x1C75E, size: 0x8, addend: 0x0, symName: __ZNSt3__111__wrap_iterIPK8SamEntryEC2B8ue170006ES3_, symObjAddr: 0xC4C0, symBinAddr: 0x100010948, symSize: 0x20 }
  - { offsetInCU: 0x1C796, offset: 0x1C796, size: 0x8, addend: 0x0, symName: __ZNKSt3__111__wrap_iterIPK8SamEntryE4baseB8ue170006Ev, symObjAddr: 0xC528, symBinAddr: 0x1000109B0, symSize: 0x18 }
  - { offsetInCU: 0x1C7BC, offset: 0x1C7BC, size: 0x8, addend: 0x0, symName: __ZNSt3__112basic_stringIcNS_11char_traitsIcEENS_9allocatorIcEEE15__make_iteratorB8ue170006EPc, symObjAddr: 0xC540, symBinAddr: 0x1000109C8, symSize: 0x30 }
  - { offsetInCU: 0x1C7F1, offset: 0x1C7F1, size: 0x8, addend: 0x0, symName: __ZNSt3__111__wrap_iterIPcEC1B8ue170006ES1_, symObjAddr: 0xC570, symBinAddr: 0x1000109F8, symSize: 0x34 }
  - { offsetInCU: 0x1C829, offset: 0x1C829, size: 0x8, addend: 0x0, symName: __ZNSt3__111__wrap_iterIPcEC2B8ue170006ES1_, symObjAddr: 0xC5A4, symBinAddr: 0x100010A2C, symSize: 0x20 }
  - { offsetInCU: 0x1C861, offset: 0x1C861, size: 0x8, addend: 0x0, symName: __ZNSt3__111__wrap_iterIPcEmmB8ue170006Ev, symObjAddr: 0xC6C4, symBinAddr: 0x100010B4C, symSize: 0x20 }
  - { offsetInCU: 0x1C887, offset: 0x1C887, size: 0x8, addend: 0x0, symName: __ZNSt3__18_IterOpsINS_17_ClassicAlgPolicyEE9iter_swapB8ue170006IRNS_11__wrap_iterIPcEES7_EEvOT_OT0_, symObjAddr: 0xC6E4, symBinAddr: 0x100010B6C, symSize: 0x44 }
  - { offsetInCU: 0x1C8CA, offset: 0x1C8CA, size: 0x8, addend: 0x0, symName: __ZNKSt3__111__wrap_iterIPcE4baseB8ue170006Ev, symObjAddr: 0xC728, symBinAddr: 0x100010BB0, symSize: 0x18 }
  - { offsetInCU: 0x1C8F0, offset: 0x1C8F0, size: 0x8, addend: 0x0, symName: __ZNSt3__16vectorINS_4pairIciEENS_9allocatorIS2_EEE11__make_iterB8ue170006EPS2_, symObjAddr: 0xC7CC, symBinAddr: 0x100010C54, symSize: 0x30 }
  - { offsetInCU: 0x1C925, offset: 0x1C925, size: 0x8, addend: 0x0, symName: __ZNSt3__111__wrap_iterIPNS_4pairIciEEEC1B8ue170006ES3_, symObjAddr: 0xC7FC, symBinAddr: 0x100010C84, symSize: 0x34 }
  - { offsetInCU: 0x1C95D, offset: 0x1C95D, size: 0x8, addend: 0x0, symName: __ZNSt3__111__wrap_iterIPNS_4pairIciEEEC2B8ue170006ES3_, symObjAddr: 0xC830, symBinAddr: 0x100010CB8, symSize: 0x20 }
  - { offsetInCU: 0x1C995, offset: 0x1C995, size: 0x8, addend: 0x0, symName: __ZNKSt3__111__wrap_iterIPNS_4pairIciEEE4baseB8ue170006Ev, symObjAddr: 0xC898, symBinAddr: 0x100010D20, symSize: 0x18 }
  - { offsetInCU: 0x1C9BB, offset: 0x1C9BB, size: 0x8, addend: 0x0, symName: __ZNSt3__16__treeINS_12__value_typeIi16MutationProposalEENS_19__map_value_compareIiS3_NS_4lessIiEELb1EEENS_9allocatorIS3_EEE5beginB8ue170006Ev, symObjAddr: 0xC8B0, symBinAddr: 0x100010D38, symSize: 0x34 }
  - { offsetInCU: 0x1C9E1, offset: 0x1C9E1, size: 0x8, addend: 0x0, symName: __ZNSt3__114__map_iteratorINS_15__tree_iteratorINS_12__value_typeIi16MutationProposalEEPNS_11__tree_nodeIS4_PvEElEEEC1B8ue170006ES9_, symObjAddr: 0xC8E4, symBinAddr: 0x100010D6C, symSize: 0x34 }
  - { offsetInCU: 0x1CA1A, offset: 0x1CA1A, size: 0x8, addend: 0x0, symName: __ZNSt3__115__tree_iteratorINS_12__value_typeIi16MutationProposalEEPNS_11__tree_nodeIS3_PvEElEC1B8ue170006EPNS_15__tree_end_nodeIPNS_16__tree_node_baseIS5_EEEE, symObjAddr: 0xC918, symBinAddr: 0x100010DA0, symSize: 0x34 }
  - { offsetInCU: 0x1CA53, offset: 0x1CA53, size: 0x8, addend: 0x0, symName: __ZNSt3__115__tree_iteratorINS_12__value_typeIi16MutationProposalEEPNS_11__tree_nodeIS3_PvEElEC2B8ue170006EPNS_15__tree_end_nodeIPNS_16__tree_node_baseIS5_EEEE, symObjAddr: 0xC94C, symBinAddr: 0x100010DD4, symSize: 0x20 }
  - { offsetInCU: 0x1CA8C, offset: 0x1CA8C, size: 0x8, addend: 0x0, symName: __ZNSt3__114__map_iteratorINS_15__tree_iteratorINS_12__value_typeIi16MutationProposalEEPNS_11__tree_nodeIS4_PvEElEEEC2B8ue170006ES9_, symObjAddr: 0xC96C, symBinAddr: 0x100010DF4, symSize: 0x20 }
  - { offsetInCU: 0x1CAC5, offset: 0x1CAC5, size: 0x8, addend: 0x0, symName: __ZNSt3__16__treeINS_12__value_typeIi16MutationProposalEENS_19__map_value_compareIiS3_NS_4lessIiEELb1EEENS_9allocatorIS3_EEE3endB8ue170006Ev, symObjAddr: 0xC98C, symBinAddr: 0x100010E14, symSize: 0x34 }
  - { offsetInCU: 0x1CAEB, offset: 0x1CAEB, size: 0x8, addend: 0x0, symName: __ZNSt3__115__tree_iteratorINS_12__value_typeIi16MutationProposalEEPNS_11__tree_nodeIS3_PvEElEppB8ue170006Ev, symObjAddr: 0xCA24, symBinAddr: 0x100010EAC, symSize: 0x38 }
  - { offsetInCU: 0x1CB11, offset: 0x1CB11, size: 0x8, addend: 0x0, symName: __ZNKSt3__115__tree_iteratorINS_12__value_typeIi16MutationProposalEEPNS_11__tree_nodeIS3_PvEElEptB8ue170006Ev, symObjAddr: 0xCB1C, symBinAddr: 0x100010FA4, symSize: 0x2C }
  - { offsetInCU: 0x1CB37, offset: 0x1CB37, size: 0x8, addend: 0x0, symName: __ZNSt3__114pointer_traitsIPNS_12__value_typeIi16MutationProposalEEE10pointer_toB8ue170006ERS3_, symObjAddr: 0xCB48, symBinAddr: 0x100010FD0, symSize: 0x14 }
  - { offsetInCU: 0x1CB5A, offset: 0x1CB5A, size: 0x8, addend: 0x0, symName: __ZNKSt3__115__tree_iteratorINS_12__value_typeIi16MutationProposalEEPNS_11__tree_nodeIS3_PvEElE8__get_npB8ue170006Ev, symObjAddr: 0xCB5C, symBinAddr: 0x100010FE4, symSize: 0x18 }
  - { offsetInCU: 0x1CB80, offset: 0x1CB80, size: 0x8, addend: 0x0, symName: __ZNSt3__16vectorIcNS_9allocatorIcEEE11__make_iterB8ue170006EPc, symObjAddr: 0xCB74, symBinAddr: 0x100010FFC, symSize: 0x30 }
  - { offsetInCU: 0x1CBB5, offset: 0x1CBB5, size: 0x8, addend: 0x0, symName: __ZNSt3__13mapIciNS_4lessIcEENS_9allocatorINS_4pairIKciEEEEEC2B8ue170006Ev, symObjAddr: 0xCBEC, symBinAddr: 0x100011074, symSize: 0x40 }
  - { offsetInCU: 0x1CBDF, offset: 0x1CBDF, size: 0x8, addend: 0x0, symName: __ZNSt3__119__map_value_compareIcNS_12__value_typeIciEENS_4lessIcEELb1EEC1B8ue170006ES4_, symObjAddr: 0xCC2C, symBinAddr: 0x1000110B4, symSize: 0x2C }
  - { offsetInCU: 0x1CC18, offset: 0x1CC18, size: 0x8, addend: 0x0, symName: __ZNSt3__16__treeINS_12__value_typeIciEENS_19__map_value_compareIcS2_NS_4lessIcEELb1EEENS_9allocatorIS2_EEEC1ERKS6_, symObjAddr: 0xCC58, symBinAddr: 0x1000110E0, symSize: 0x34 }
  - { offsetInCU: 0x1CC53, offset: 0x1CC53, size: 0x8, addend: 0x0, symName: __ZNSt3__119__map_value_compareIcNS_12__value_typeIciEENS_4lessIcEELb1EEC2B8ue170006ES4_, symObjAddr: 0xCC8C, symBinAddr: 0x100011114, symSize: 0x14 }
  - { offsetInCU: 0x1CC8C, offset: 0x1CC8C, size: 0x8, addend: 0x0, symName: __ZNSt3__16__treeINS_12__value_typeIciEENS_19__map_value_compareIcS2_NS_4lessIcEELb1EEENS_9allocatorIS2_EEEC2ERKS6_, symObjAddr: 0xCCA0, symBinAddr: 0x100011128, symSize: 0x70 }
  - { offsetInCU: 0x1CCC7, offset: 0x1CCC7, size: 0x8, addend: 0x0, symName: __ZNSt3__117__compressed_pairINS_15__tree_end_nodeIPNS_16__tree_node_baseIPvEEEENS_9allocatorINS_11__tree_nodeINS_12__value_typeIciEES3_EEEEEC1B8ue170006ILb1EvEEv, symObjAddr: 0xCD10, symBinAddr: 0x100011198, symSize: 0x2C }
  - { offsetInCU: 0x1CCFC, offset: 0x1CCFC, size: 0x8, addend: 0x0, symName: __ZNSt3__117__compressed_pairImNS_19__map_value_compareIcNS_12__value_typeIciEENS_4lessIcEELb1EEEEC1B8ue170006IiRKS6_EEOT_OT0_, symObjAddr: 0xCD3C, symBinAddr: 0x1000111C4, symSize: 0x3C }
  - { offsetInCU: 0x1CD54, offset: 0x1CD54, size: 0x8, addend: 0x0, symName: __ZNSt3__16__treeINS_12__value_typeIciEENS_19__map_value_compareIcS2_NS_4lessIcEELb1EEENS_9allocatorIS2_EEE10__end_nodeB8ue170006Ev, symObjAddr: 0xCD78, symBinAddr: 0x100011200, symSize: 0x2C }
  - { offsetInCU: 0x1CD7A, offset: 0x1CD7A, size: 0x8, addend: 0x0, symName: __ZNSt3__16__treeINS_12__value_typeIciEENS_19__map_value_compareIcS2_NS_4lessIcEELb1EEENS_9allocatorIS2_EEE12__begin_nodeB8ue170006Ev, symObjAddr: 0xCDA4, symBinAddr: 0x10001122C, symSize: 0x14 }
  - { offsetInCU: 0x1CDA0, offset: 0x1CDA0, size: 0x8, addend: 0x0, symName: __ZNSt3__117__compressed_pairINS_15__tree_end_nodeIPNS_16__tree_node_baseIPvEEEENS_9allocatorINS_11__tree_nodeINS_12__value_typeIciEES3_EEEEEC2B8ue170006ILb1EvEEv, symObjAddr: 0xCDB8, symBinAddr: 0x100011240, symSize: 0x34 }
  - { offsetInCU: 0x1CDD5, offset: 0x1CDD5, size: 0x8, addend: 0x0, symName: __ZNSt3__122__compressed_pair_elemINS_9allocatorINS_11__tree_nodeINS_12__value_typeIciEEPvEEEELi1ELb1EEC2B8ue170006ENS_16__value_init_tagE, symObjAddr: 0xCDEC, symBinAddr: 0x100011274, symSize: 0x2C }
  - { offsetInCU: 0x1CE09, offset: 0x1CE09, size: 0x8, addend: 0x0, symName: __ZNSt3__19allocatorINS_11__tree_nodeINS_12__value_typeIciEEPvEEEC2B8ue170006Ev, symObjAddr: 0xCE18, symBinAddr: 0x1000112A0, symSize: 0x2C }
  - { offsetInCU: 0x1CE33, offset: 0x1CE33, size: 0x8, addend: 0x0, symName: __ZNSt3__116__non_trivial_ifILb1ENS_9allocatorINS_11__tree_nodeINS_12__value_typeIciEEPvEEEEEC2B8ue170006Ev, symObjAddr: 0xCE44, symBinAddr: 0x1000112CC, symSize: 0x14 }
  - { offsetInCU: 0x1CE5D, offset: 0x1CE5D, size: 0x8, addend: 0x0, symName: __ZNSt3__117__compressed_pairImNS_19__map_value_compareIcNS_12__value_typeIciEENS_4lessIcEELb1EEEEC2B8ue170006IiRKS6_EEOT_OT0_, symObjAddr: 0xCE58, symBinAddr: 0x1000112E0, symSize: 0x44 }
  - { offsetInCU: 0x1CEB5, offset: 0x1CEB5, size: 0x8, addend: 0x0, symName: __ZNSt3__122__compressed_pair_elemINS_19__map_value_compareIcNS_12__value_typeIciEENS_4lessIcEELb1EEELi1ELb1EEC2B8ue170006IRKS6_vEEOT_, symObjAddr: 0xCE9C, symBinAddr: 0x100011324, symSize: 0x18 }
  - { offsetInCU: 0x1CEF7, offset: 0x1CEF7, size: 0x8, addend: 0x0, symName: __ZNSt3__117__compressed_pairINS_15__tree_end_nodeIPNS_16__tree_node_baseIPvEEEENS_9allocatorINS_11__tree_nodeINS_12__value_typeIciEES3_EEEEE5firstB8ue170006Ev, symObjAddr: 0xCEB4, symBinAddr: 0x10001133C, symSize: 0x24 }
  - { offsetInCU: 0x1CF1D, offset: 0x1CF1D, size: 0x8, addend: 0x0, symName: __ZNSt3__13mapIciNS_4lessIcEENS_9allocatorINS_4pairIKciEEEEED2B8ue170006Ev, symObjAddr: 0xCED8, symBinAddr: 0x100011360, symSize: 0x2C }
  - { offsetInCU: 0x1CF47, offset: 0x1CF47, size: 0x8, addend: 0x0, symName: __ZNSt3__16__treeINS_12__value_typeIciEENS_19__map_value_compareIcS2_NS_4lessIcEELb1EEENS_9allocatorIS2_EEED1Ev, symObjAddr: 0xCF04, symBinAddr: 0x10001138C, symSize: 0x2C }
  - { offsetInCU: 0x1CF73, offset: 0x1CF73, size: 0x8, addend: 0x0, symName: __ZNSt3__16__treeINS_12__value_typeIciEENS_19__map_value_compareIcS2_NS_4lessIcEELb1EEENS_9allocatorIS2_EEED2Ev, symObjAddr: 0xCF30, symBinAddr: 0x1000113B8, symSize: 0x38 }
  - { offsetInCU: 0x1CF9F, offset: 0x1CF9F, size: 0x8, addend: 0x0, symName: __ZNSt3__16__treeINS_12__value_typeIciEENS_19__map_value_compareIcS2_NS_4lessIcEELb1EEENS_9allocatorIS2_EEE7destroyEPNS_11__tree_nodeIS2_PvEE, symObjAddr: 0xCF68, symBinAddr: 0x1000113F0, symSize: 0xC0 }
  - { offsetInCU: 0x1CFF3, offset: 0x1CFF3, size: 0x8, addend: 0x0, symName: __ZNKSt3__16__treeINS_12__value_typeIciEENS_19__map_value_compareIcS2_NS_4lessIcEELb1EEENS_9allocatorIS2_EEE6__rootB8ue170006Ev, symObjAddr: 0xD028, symBinAddr: 0x1000114B0, symSize: 0x28 }
  - { offsetInCU: 0x1D019, offset: 0x1D019, size: 0x8, addend: 0x0, symName: __ZNSt3__16__treeINS_12__value_typeIciEENS_19__map_value_compareIcS2_NS_4lessIcEELb1EEENS_9allocatorIS2_EEE12__node_allocB8ue170006Ev, symObjAddr: 0xD050, symBinAddr: 0x1000114D8, symSize: 0x28 }
  - { offsetInCU: 0x1D03F, offset: 0x1D03F, size: 0x8, addend: 0x0, symName: __ZNSt3__116allocator_traitsINS_9allocatorINS_11__tree_nodeINS_12__value_typeIciEEPvEEEEE7destroyB8ue170006INS_4pairIKciEEvvEEvRS7_PT_, symObjAddr: 0xD078, symBinAddr: 0x100011500, symSize: 0x14 }
  - { offsetInCU: 0x1D079, offset: 0x1D079, size: 0x8, addend: 0x0, symName: __ZNSt3__122__tree_key_value_typesINS_12__value_typeIciEEE9__get_ptrB8ue170006ERS2_, symObjAddr: 0xD08C, symBinAddr: 0x100011514, symSize: 0x24 }
  - { offsetInCU: 0x1D09D, offset: 0x1D09D, size: 0x8, addend: 0x0, symName: __ZNSt3__116allocator_traitsINS_9allocatorINS_11__tree_nodeINS_12__value_typeIciEEPvEEEEE10deallocateB8ue170006ERS7_PS6_m, symObjAddr: 0xD0B0, symBinAddr: 0x100011538, symSize: 0x34 }
  - { offsetInCU: 0x1D0DF, offset: 0x1D0DF, size: 0x8, addend: 0x0, symName: __ZNSt3__117__compressed_pairINS_15__tree_end_nodeIPNS_16__tree_node_baseIPvEEEENS_9allocatorINS_11__tree_nodeINS_12__value_typeIciEES3_EEEEE6secondB8ue170006Ev, symObjAddr: 0xD0E4, symBinAddr: 0x10001156C, symSize: 0x24 }
  - { offsetInCU: 0x1D105, offset: 0x1D105, size: 0x8, addend: 0x0, symName: __ZNSt3__122__compressed_pair_elemINS_9allocatorINS_11__tree_nodeINS_12__value_typeIciEEPvEEEELi1ELb1EE5__getB8ue170006Ev, symObjAddr: 0xD108, symBinAddr: 0x100011590, symSize: 0x14 }
  - { offsetInCU: 0x1D12B, offset: 0x1D12B, size: 0x8, addend: 0x0, symName: __ZNSt3__112__value_typeIciE11__get_valueB8ue170006Ev, symObjAddr: 0xD11C, symBinAddr: 0x1000115A4, symSize: 0x14 }
  - { offsetInCU: 0x1D151, offset: 0x1D151, size: 0x8, addend: 0x0, symName: __ZNSt3__19allocatorINS_11__tree_nodeINS_12__value_typeIciEEPvEEE10deallocateB8ue170006EPS5_m, symObjAddr: 0xD130, symBinAddr: 0x1000115B8, symSize: 0x74 }
  - { offsetInCU: 0x1D193, offset: 0x1D193, size: 0x8, addend: 0x0, symName: __ZNKSt3__16__treeINS_12__value_typeIciEENS_19__map_value_compareIcS2_NS_4lessIcEELb1EEENS_9allocatorIS2_EEE10__end_nodeB8ue170006Ev, symObjAddr: 0xD1A4, symBinAddr: 0x10001162C, symSize: 0x2C }
  - { offsetInCU: 0x1D1B9, offset: 0x1D1B9, size: 0x8, addend: 0x0, symName: __ZNKSt3__117__compressed_pairINS_15__tree_end_nodeIPNS_16__tree_node_baseIPvEEEENS_9allocatorINS_11__tree_nodeINS_12__value_typeIciEES3_EEEEE5firstB8ue170006Ev, symObjAddr: 0xD1D0, symBinAddr: 0x100011658, symSize: 0x24 }
  - { offsetInCU: 0x1D1DF, offset: 0x1D1DF, size: 0x8, addend: 0x0, symName: __ZNSt3__16__treeINS_12__value_typeIciEENS_19__map_value_compareIcS2_NS_4lessIcEELb1EEENS_9allocatorIS2_EEE12__find_equalIcEERPNS_16__tree_node_baseIPvEERPNS_15__tree_end_nodeISE_EERKT_, symObjAddr: 0xD1F4, symBinAddr: 0x10001167C, symSize: 0x184 }
  - { offsetInCU: 0x1D24C, offset: 0x1D24C, size: 0x8, addend: 0x0, symName: __ZNSt3__13mapIciNS_4lessIcEENS_9allocatorINS_4pairIKciEEEEE25__construct_node_with_keyERS5_, symObjAddr: 0xD378, symBinAddr: 0x100011800, symSize: 0x144 }
  - { offsetInCU: 0x1D2A2, offset: 0x1D2A2, size: 0x8, addend: 0x0, symName: __ZNSt3__16__treeINS_12__value_typeIciEENS_19__map_value_compareIcS2_NS_4lessIcEELb1EEENS_9allocatorIS2_EEE16__insert_node_atEPNS_15__tree_end_nodeIPNS_16__tree_node_baseIPvEEEERSE_SE_, symObjAddr: 0xD4BC, symBinAddr: 0x100011944, symSize: 0xCC }
  - { offsetInCU: 0x1D2F7, offset: 0x1D2F7, size: 0x8, addend: 0x0, symName: __ZNKSt3__110unique_ptrINS_11__tree_nodeINS_12__value_typeIciEEPvEENS_21__map_node_destructorINS_9allocatorIS5_EEEEE3getB8ue170006Ev, symObjAddr: 0xD588, symBinAddr: 0x100011A10, symSize: 0x28 }
  - { offsetInCU: 0x1D31D, offset: 0x1D31D, size: 0x8, addend: 0x0, symName: __ZNSt3__110unique_ptrINS_11__tree_nodeINS_12__value_typeIciEEPvEENS_21__map_node_destructorINS_9allocatorIS5_EEEEE7releaseB8ue170006Ev, symObjAddr: 0xD5B0, symBinAddr: 0x100011A38, symSize: 0x44 }
  - { offsetInCU: 0x1D352, offset: 0x1D352, size: 0x8, addend: 0x0, symName: __ZNSt3__110unique_ptrINS_11__tree_nodeINS_12__value_typeIciEEPvEENS_21__map_node_destructorINS_9allocatorIS5_EEEEED1B8ue170006Ev, symObjAddr: 0xD5F4, symBinAddr: 0x100011A7C, symSize: 0x2C }
  - { offsetInCU: 0x1D37C, offset: 0x1D37C, size: 0x8, addend: 0x0, symName: __ZNKSt3__16__treeINS_12__value_typeIciEENS_19__map_value_compareIcS2_NS_4lessIcEELb1EEENS_9allocatorIS2_EEE10__root_ptrB8ue170006Ev, symObjAddr: 0xD620, symBinAddr: 0x100011AA8, symSize: 0x24 }
  - { offsetInCU: 0x1D3A2, offset: 0x1D3A2, size: 0x8, addend: 0x0, symName: __ZNSt3__16__treeINS_12__value_typeIciEENS_19__map_value_compareIcS2_NS_4lessIcEELb1EEENS_9allocatorIS2_EEE10value_compB8ue170006Ev, symObjAddr: 0xD644, symBinAddr: 0x100011ACC, symSize: 0x28 }
  - { offsetInCU: 0x1D3C8, offset: 0x1D3C8, size: 0x8, addend: 0x0, symName: __ZNKSt3__119__map_value_compareIcNS_12__value_typeIciEENS_4lessIcEELb1EEclB8ue170006ERKcRKS2_, symObjAddr: 0xD66C, symBinAddr: 0x100011AF4, symSize: 0x50 }
  - { offsetInCU: 0x1D40C, offset: 0x1D40C, size: 0x8, addend: 0x0, symName: __ZNKSt3__119__map_value_compareIcNS_12__value_typeIciEENS_4lessIcEELb1EEclB8ue170006ERKS2_RKc, symObjAddr: 0xD6BC, symBinAddr: 0x100011B44, symSize: 0x48 }
  - { offsetInCU: 0x1D450, offset: 0x1D450, size: 0x8, addend: 0x0, symName: __ZNSt3__117__compressed_pairImNS_19__map_value_compareIcNS_12__value_typeIciEENS_4lessIcEELb1EEEE6secondB8ue170006Ev, symObjAddr: 0xD704, symBinAddr: 0x100011B8C, symSize: 0x24 }
  - { offsetInCU: 0x1D476, offset: 0x1D476, size: 0x8, addend: 0x0, symName: __ZNSt3__122__compressed_pair_elemINS_19__map_value_compareIcNS_12__value_typeIciEENS_4lessIcEELb1EEELi1ELb1EE5__getB8ue170006Ev, symObjAddr: 0xD728, symBinAddr: 0x100011BB0, symSize: 0x14 }
  - { offsetInCU: 0x1D49C, offset: 0x1D49C, size: 0x8, addend: 0x0, symName: __ZNKSt3__14lessIcEclB8ue170006ERKcS3_, symObjAddr: 0xD73C, symBinAddr: 0x100011BC4, symSize: 0x34 }
  - { offsetInCU: 0x1D4E0, offset: 0x1D4E0, size: 0x8, addend: 0x0, symName: __ZNKSt3__112__value_typeIciE11__get_valueB8ue170006Ev, symObjAddr: 0xD770, symBinAddr: 0x100011BF8, symSize: 0x14 }
  - { offsetInCU: 0x1D506, offset: 0x1D506, size: 0x8, addend: 0x0, symName: __ZNSt3__116allocator_traitsINS_9allocatorINS_11__tree_nodeINS_12__value_typeIciEEPvEEEEE8allocateB8ue170006ERS7_m, symObjAddr: 0xD784, symBinAddr: 0x100011C0C, symSize: 0x2C }
  - { offsetInCU: 0x1D539, offset: 0x1D539, size: 0x8, addend: 0x0, symName: __ZNSt3__121__map_node_destructorINS_9allocatorINS_11__tree_nodeINS_12__value_typeIciEEPvEEEEEC1B8ue170006ERS7_, symObjAddr: 0xD7B0, symBinAddr: 0x100011C38, symSize: 0x34 }
  - { offsetInCU: 0x1D578, offset: 0x1D578, size: 0x8, addend: 0x0, symName: __ZNSt3__110unique_ptrINS_11__tree_nodeINS_12__value_typeIciEEPvEENS_21__map_node_destructorINS_9allocatorIS5_EEEEEC1B8ue170006ILb1EvEEPS5_NS_16__dependent_typeINS_27__unique_ptr_deleter_sfinaeIS9_EEXT_EE20__good_rval_ref_typeE, symObjAddr: 0xD7E4, symBinAddr: 0x100011C6C, symSize: 0x3C }
  - { offsetInCU: 0x1D5C9, offset: 0x1D5C9, size: 0x8, addend: 0x0, symName: __ZNSt3__116allocator_traitsINS_9allocatorINS_11__tree_nodeINS_12__value_typeIciEEPvEEEEE9constructB8ue170006IKcJRSA_EvEEvRS7_PT_DpOT0_, symObjAddr: 0xD820, symBinAddr: 0x100011CA8, symSize: 0x34 }
  - { offsetInCU: 0x1D620, offset: 0x1D620, size: 0x8, addend: 0x0, symName: __ZNKSt3__110unique_ptrINS_11__tree_nodeINS_12__value_typeIciEEPvEENS_21__map_node_destructorINS_9allocatorIS5_EEEEEptB8ue170006Ev, symObjAddr: 0xD854, symBinAddr: 0x100011CDC, symSize: 0x28 }
  - { offsetInCU: 0x1D646, offset: 0x1D646, size: 0x8, addend: 0x0, symName: __ZNSt3__110unique_ptrINS_11__tree_nodeINS_12__value_typeIciEEPvEENS_21__map_node_destructorINS_9allocatorIS5_EEEEE11get_deleterB8ue170006Ev, symObjAddr: 0xD87C, symBinAddr: 0x100011D04, symSize: 0x24 }
  - { offsetInCU: 0x1D66C, offset: 0x1D66C, size: 0x8, addend: 0x0, symName: __ZNSt3__116allocator_traitsINS_9allocatorINS_11__tree_nodeINS_12__value_typeIciEEPvEEEEE9constructB8ue170006IiJEvEEvRS7_PT_DpOT0_, symObjAddr: 0xD8A0, symBinAddr: 0x100011D28, symSize: 0x2C }
  - { offsetInCU: 0x1D6AE, offset: 0x1D6AE, size: 0x8, addend: 0x0, symName: __ZNSt3__19allocatorINS_11__tree_nodeINS_12__value_typeIciEEPvEEE8allocateB8ue170006Em, symObjAddr: 0xD8CC, symBinAddr: 0x100011D54, symSize: 0x8C }
  - { offsetInCU: 0x1D6EC, offset: 0x1D6EC, size: 0x8, addend: 0x0, symName: __ZNSt3__116allocator_traitsINS_9allocatorINS_11__tree_nodeINS_12__value_typeIciEEPvEEEEE8max_sizeB8ue170006IS7_vEEmRKS7_, symObjAddr: 0xD958, symBinAddr: 0x100011DE0, symSize: 0x24 }
  - { offsetInCU: 0x1D71A, offset: 0x1D71A, size: 0x8, addend: 0x0, symName: __ZNKSt3__19allocatorINS_11__tree_nodeINS_12__value_typeIciEEPvEEE8max_sizeB8ue170006Ev, symObjAddr: 0xD97C, symBinAddr: 0x100011E04, symSize: 0x18 }
  - { offsetInCU: 0x1D740, offset: 0x1D740, size: 0x8, addend: 0x0, symName: __ZNSt3__121__map_node_destructorINS_9allocatorINS_11__tree_nodeINS_12__value_typeIciEEPvEEEEEC2B8ue170006ERS7_, symObjAddr: 0xD994, symBinAddr: 0x100011E1C, symSize: 0x28 }
  - { offsetInCU: 0x1D779, offset: 0x1D779, size: 0x8, addend: 0x0, symName: __ZNSt3__110unique_ptrINS_11__tree_nodeINS_12__value_typeIciEEPvEENS_21__map_node_destructorINS_9allocatorIS5_EEEEEC2B8ue170006ILb1EvEEPS5_NS_16__dependent_typeINS_27__unique_ptr_deleter_sfinaeIS9_EEXT_EE20__good_rval_ref_typeE, symObjAddr: 0xD9BC, symBinAddr: 0x100011E44, symSize: 0x5C }
  - { offsetInCU: 0x1D7CA, offset: 0x1D7CA, size: 0x8, addend: 0x0, symName: __ZNSt3__117__compressed_pairIPNS_11__tree_nodeINS_12__value_typeIciEEPvEENS_21__map_node_destructorINS_9allocatorIS5_EEEEEC1B8ue170006IRS6_SA_EEOT_OT0_, symObjAddr: 0xDA18, symBinAddr: 0x100011EA0, symSize: 0x3C }
  - { offsetInCU: 0x1D822, offset: 0x1D822, size: 0x8, addend: 0x0, symName: __ZNSt3__117__compressed_pairIPNS_11__tree_nodeINS_12__value_typeIciEEPvEENS_21__map_node_destructorINS_9allocatorIS5_EEEEEC2B8ue170006IRS6_SA_EEOT_OT0_, symObjAddr: 0xDA54, symBinAddr: 0x100011EDC, symSize: 0x48 }
  - { offsetInCU: 0x1D87A, offset: 0x1D87A, size: 0x8, addend: 0x0, symName: __ZNSt3__122__compressed_pair_elemIPNS_11__tree_nodeINS_12__value_typeIciEEPvEELi0ELb0EEC2B8ue170006IRS6_vEEOT_, symObjAddr: 0xDA9C, symBinAddr: 0x100011F24, symSize: 0x24 }
  - { offsetInCU: 0x1D8BC, offset: 0x1D8BC, size: 0x8, addend: 0x0, symName: __ZNSt3__122__compressed_pair_elemINS_21__map_node_destructorINS_9allocatorINS_11__tree_nodeINS_12__value_typeIciEEPvEEEEEELi1ELb0EEC2B8ue170006IS9_vEEOT_, symObjAddr: 0xDAC0, symBinAddr: 0x100011F48, symSize: 0x24 }
  - { offsetInCU: 0x1D8FE, offset: 0x1D8FE, size: 0x8, addend: 0x0, symName: __ZNSt3__19allocatorINS_11__tree_nodeINS_12__value_typeIciEEPvEEE9constructB8ue170006IKcJRS8_EEEvPT_DpOT0_, symObjAddr: 0xDAE4, symBinAddr: 0x100011F6C, symSize: 0x28 }
  - { offsetInCU: 0x1D954, offset: 0x1D954, size: 0x8, addend: 0x0, symName: __ZNKSt3__117__compressed_pairIPNS_11__tree_nodeINS_12__value_typeIciEEPvEENS_21__map_node_destructorINS_9allocatorIS5_EEEEE5firstB8ue170006Ev, symObjAddr: 0xDB0C, symBinAddr: 0x100011F94, symSize: 0x24 }
  - { offsetInCU: 0x1D97A, offset: 0x1D97A, size: 0x8, addend: 0x0, symName: __ZNKSt3__122__compressed_pair_elemIPNS_11__tree_nodeINS_12__value_typeIciEEPvEELi0ELb0EE5__getB8ue170006Ev, symObjAddr: 0xDB30, symBinAddr: 0x100011FB8, symSize: 0x14 }
  - { offsetInCU: 0x1D9A0, offset: 0x1D9A0, size: 0x8, addend: 0x0, symName: __ZNSt3__117__compressed_pairIPNS_11__tree_nodeINS_12__value_typeIciEEPvEENS_21__map_node_destructorINS_9allocatorIS5_EEEEE6secondB8ue170006Ev, symObjAddr: 0xDB44, symBinAddr: 0x100011FCC, symSize: 0x28 }
  - { offsetInCU: 0x1D9C6, offset: 0x1D9C6, size: 0x8, addend: 0x0, symName: __ZNSt3__122__compressed_pair_elemINS_21__map_node_destructorINS_9allocatorINS_11__tree_nodeINS_12__value_typeIciEEPvEEEEEELi1ELb0EE5__getB8ue170006Ev, symObjAddr: 0xDB6C, symBinAddr: 0x100011FF4, symSize: 0x14 }
  - { offsetInCU: 0x1D9EC, offset: 0x1D9EC, size: 0x8, addend: 0x0, symName: __ZNSt3__19allocatorINS_11__tree_nodeINS_12__value_typeIciEEPvEEE9constructB8ue170006IiJEEEvPT_DpOT0_, symObjAddr: 0xDB80, symBinAddr: 0x100012008, symSize: 0x1C }
  - { offsetInCU: 0x1DA2E, offset: 0x1DA2E, size: 0x8, addend: 0x0, symName: __ZNSt3__16__treeINS_12__value_typeIciEENS_19__map_value_compareIcS2_NS_4lessIcEELb1EEENS_9allocatorIS2_EEE4sizeB8ue170006Ev, symObjAddr: 0xDB9C, symBinAddr: 0x100012024, symSize: 0x28 }
  - { offsetInCU: 0x1DA54, offset: 0x1DA54, size: 0x8, addend: 0x0, symName: __ZNSt3__117__compressed_pairImNS_19__map_value_compareIcNS_12__value_typeIciEENS_4lessIcEELb1EEEE5firstB8ue170006Ev, symObjAddr: 0xDBC4, symBinAddr: 0x10001204C, symSize: 0x24 }
  - { offsetInCU: 0x1DA7A, offset: 0x1DA7A, size: 0x8, addend: 0x0, symName: __ZNSt3__117__compressed_pairIPNS_11__tree_nodeINS_12__value_typeIciEEPvEENS_21__map_node_destructorINS_9allocatorIS5_EEEEE5firstB8ue170006Ev, symObjAddr: 0xDBE8, symBinAddr: 0x100012070, symSize: 0x24 }
  - { offsetInCU: 0x1DAA0, offset: 0x1DAA0, size: 0x8, addend: 0x0, symName: __ZNSt3__122__compressed_pair_elemIPNS_11__tree_nodeINS_12__value_typeIciEEPvEELi0ELb0EE5__getB8ue170006Ev, symObjAddr: 0xDC0C, symBinAddr: 0x100012094, symSize: 0x14 }
  - { offsetInCU: 0x1DAC6, offset: 0x1DAC6, size: 0x8, addend: 0x0, symName: __ZNSt3__110unique_ptrINS_11__tree_nodeINS_12__value_typeIciEEPvEENS_21__map_node_destructorINS_9allocatorIS5_EEEEED2B8ue170006Ev, symObjAddr: 0xDC20, symBinAddr: 0x1000120A8, symSize: 0x30 }
  - { offsetInCU: 0x1DAF0, offset: 0x1DAF0, size: 0x8, addend: 0x0, symName: __ZNSt3__110unique_ptrINS_11__tree_nodeINS_12__value_typeIciEEPvEENS_21__map_node_destructorINS_9allocatorIS5_EEEEE5resetB8ue170006EPS5_, symObjAddr: 0xDC50, symBinAddr: 0x1000120D8, symSize: 0x78 }
  - { offsetInCU: 0x1DB34, offset: 0x1DB34, size: 0x8, addend: 0x0, symName: __ZNSt3__121__map_node_destructorINS_9allocatorINS_11__tree_nodeINS_12__value_typeIciEEPvEEEEEclB8ue170006EPS6_, symObjAddr: 0xDCC8, symBinAddr: 0x100012150, symSize: 0xE4 }
  - { offsetInCU: 0x1DB69, offset: 0x1DB69, size: 0x8, addend: 0x0, symName: __ZNSt3__116allocator_traitsINS_9allocatorINS_11__tree_nodeINS_12__value_typeIciEEPvEEEEE7destroyB8ue170006IivvEEvRS7_PT_, symObjAddr: 0xDDAC, symBinAddr: 0x100012234, symSize: 0x14 }
  - { offsetInCU: 0x1DBA3, offset: 0x1DBA3, size: 0x8, addend: 0x0, symName: __ZNSt3__116allocator_traitsINS_9allocatorINS_11__tree_nodeINS_12__value_typeIciEEPvEEEEE7destroyB8ue170006IKcvvEEvRS7_PT_, symObjAddr: 0xDDC0, symBinAddr: 0x100012248, symSize: 0x14 }
  - { offsetInCU: 0x1DBDD, offset: 0x1DBDD, size: 0x8, addend: 0x0, symName: __ZNSt3__16__treeINS_12__value_typeIciEENS_19__map_value_compareIcS2_NS_4lessIcEELb1EEENS_9allocatorIS2_EEE5beginB8ue170006Ev, symObjAddr: 0xDDD4, symBinAddr: 0x10001225C, symSize: 0x34 }
  - { offsetInCU: 0x1DC03, offset: 0x1DC03, size: 0x8, addend: 0x0, symName: __ZNSt3__114__map_iteratorINS_15__tree_iteratorINS_12__value_typeIciEEPNS_11__tree_nodeIS3_PvEElEEEC1B8ue170006ES8_, symObjAddr: 0xDE08, symBinAddr: 0x100012290, symSize: 0x34 }
  - { offsetInCU: 0x1DC3C, offset: 0x1DC3C, size: 0x8, addend: 0x0, symName: __ZNSt3__115__tree_iteratorINS_12__value_typeIciEEPNS_11__tree_nodeIS2_PvEElEC1B8ue170006EPNS_15__tree_end_nodeIPNS_16__tree_node_baseIS4_EEEE, symObjAddr: 0xDE3C, symBinAddr: 0x1000122C4, symSize: 0x34 }
  - { offsetInCU: 0x1DC75, offset: 0x1DC75, size: 0x8, addend: 0x0, symName: __ZNSt3__115__tree_iteratorINS_12__value_typeIciEEPNS_11__tree_nodeIS2_PvEElEC2B8ue170006EPNS_15__tree_end_nodeIPNS_16__tree_node_baseIS4_EEEE, symObjAddr: 0xDE70, symBinAddr: 0x1000122F8, symSize: 0x20 }
  - { offsetInCU: 0x1DCAE, offset: 0x1DCAE, size: 0x8, addend: 0x0, symName: __ZNSt3__114__map_iteratorINS_15__tree_iteratorINS_12__value_typeIciEEPNS_11__tree_nodeIS3_PvEElEEEC2B8ue170006ES8_, symObjAddr: 0xDE90, symBinAddr: 0x100012318, symSize: 0x20 }
  - { offsetInCU: 0x1DCE7, offset: 0x1DCE7, size: 0x8, addend: 0x0, symName: __ZNSt3__16__treeINS_12__value_typeIciEENS_19__map_value_compareIcS2_NS_4lessIcEELb1EEENS_9allocatorIS2_EEE3endB8ue170006Ev, symObjAddr: 0xDEB0, symBinAddr: 0x100012338, symSize: 0x34 }
  - { offsetInCU: 0x1DD0D, offset: 0x1DD0D, size: 0x8, addend: 0x0, symName: __ZNSt3__114__map_iteratorINS_15__tree_iteratorINS_12__value_typeIciEEPNS_11__tree_nodeIS3_PvEElEEEppB8ue170006Ev, symObjAddr: 0xDFEC, symBinAddr: 0x100012474, symSize: 0x2C }
  - { offsetInCU: 0x1DD33, offset: 0x1DD33, size: 0x8, addend: 0x0, symName: __ZNKSt3__114__map_iteratorINS_15__tree_iteratorINS_12__value_typeIciEEPNS_11__tree_nodeIS3_PvEElEEEdeB8ue170006Ev, symObjAddr: 0xE018, symBinAddr: 0x1000124A0, symSize: 0x28 }
  - { offsetInCU: 0x1DD59, offset: 0x1DD59, size: 0x8, addend: 0x0, symName: __ZNSt3__14pairIciEC1B8ue170006IKciEERKNS0_IT_T0_EE, symObjAddr: 0xE040, symBinAddr: 0x1000124C8, symSize: 0x34 }
  - { offsetInCU: 0x1DDA3, offset: 0x1DDA3, size: 0x8, addend: 0x0, symName: __ZNSt3__115__tree_iteratorINS_12__value_typeIciEEPNS_11__tree_nodeIS2_PvEElEppB8ue170006Ev, symObjAddr: 0xE0D8, symBinAddr: 0x100012560, symSize: 0x38 }
  - { offsetInCU: 0x1DDC9, offset: 0x1DDC9, size: 0x8, addend: 0x0, symName: __ZNKSt3__115__tree_iteratorINS_12__value_typeIciEEPNS_11__tree_nodeIS2_PvEElEptB8ue170006Ev, symObjAddr: 0xE110, symBinAddr: 0x100012598, symSize: 0x2C }
  - { offsetInCU: 0x1DDEF, offset: 0x1DDEF, size: 0x8, addend: 0x0, symName: __ZNSt3__114pointer_traitsIPNS_12__value_typeIciEEE10pointer_toB8ue170006ERS2_, symObjAddr: 0xE13C, symBinAddr: 0x1000125C4, symSize: 0x14 }
  - { offsetInCU: 0x1DE12, offset: 0x1DE12, size: 0x8, addend: 0x0, symName: __ZNKSt3__115__tree_iteratorINS_12__value_typeIciEEPNS_11__tree_nodeIS2_PvEElE8__get_npB8ue170006Ev, symObjAddr: 0xE150, symBinAddr: 0x1000125D8, symSize: 0x18 }
  - { offsetInCU: 0x1DE38, offset: 0x1DE38, size: 0x8, addend: 0x0, symName: __ZNSt3__14pairIciEC2B8ue170006IKciEERKNS0_IT_T0_EE, symObjAddr: 0xE168, symBinAddr: 0x1000125F0, symSize: 0x30 }
  - { offsetInCU: 0x1DE82, offset: 0x1DE82, size: 0x8, addend: 0x0, symName: __ZNSt3__114pointer_traitsIPNS_4pairIKciEEE10pointer_toB8ue170006ERS3_, symObjAddr: 0xE198, symBinAddr: 0x100012620, symSize: 0x14 }
  - { offsetInCU: 0x1DEA5, offset: 0x1DEA5, size: 0x8, addend: 0x0, symName: __ZNSt3__112basic_stringIcNS_11char_traitsIcEENS_9allocatorIcEEEC2B8ue170006ILi0EEEPKc, symObjAddr: 0xE1AC, symBinAddr: 0x100012634, symSize: 0x58 }
  - { offsetInCU: 0x1DEE4, offset: 0x1DEE4, size: 0x8, addend: 0x0, symName: __ZNSt3__112basic_stringIcNS_11char_traitsIcEENS_9allocatorIcEEE6appendB8ue170006ERKS5_, symObjAddr: 0xE204, symBinAddr: 0x10001268C, symSize: 0x4C }
...
